(dp0
S'cookies'
p1
(dp2
S'wxloadtime'
p3
S'1502931711_expired'
p4
sS'webwx_data_ticket'
p5
S'gScCqu0BXy9XcH80asi/Cfdb'
p6
sS'wxuin'
p7
S'547102516'
p8
sS'login_frequency'
p9
S'2'
p10
sS'MM_WX_NOTIFY_STATE'
p11
S'1'
p12
sS'MM_WX_SOUND_STATE'
p13
g12
sS'webwx_auth_ticket'
p14
S'CIsBENOy4dwFGoABJ+bau7gK92vUHr+KS+QQAh7FRi0nM5piqgKXABa0aDwbB7pt4VxKmDYsHX3D+uQtSN1+4FzJyDvOCGpCgcCDrkA2WFuYkUiNfiLIHlEuWyGs37DzfKQ0VNqqRG2pRVMkkBZrYOI+fKT6dgmAilM031zrtdQPBD2zIUAf+r4pyAE='
p15
sS'last_wxuin'
p16
S'547102516'
p17
sS'webwxuvid'
p18
S'7858519452ac080615f00594b5ae6eae245ce27119e1c235d7da540400554b966346b76aa328e239fa46f2651c6399b6'
p19
sS'wxpluginkey'
p20
S'1502931421'
p21
sS'wxsid'
p22
S'vQtcGA91hSDHXiPN'
p23
sS'mm_lang'
p24
S'zh_CN'
p25
ssS'version'
p26
S'1.3.8'
p27
sS'storage'
p28
(dp29
S'userName'
p30
V@6f349e5e95aa664346ae4ba60a8ba0ce29f0f91689620d4d0efa6f881919fd99
p31
sS'lastInputUserName'
p32
NsS'memberList'
p33
ccopy_reg
_reconstructor
p34
(cstorage.templates
ContactList
p35
c__builtin__
list
p36
(lp37
g34
(cstorage.templates
User
p38
c__builtin__
dict
p39
(dp40
S'UserName'
p41
g31
sS'City'
p42
S''
p43
sS'DisplayName'
p44
g43
sS'UniFriend'
p45
I0
sS'OwnerUin'
p46
I0
sS'MemberList'
p47
g34
(g35
g36
(lp48
tp49
Rp50
I1
bsS'PYQuanPin'
p51
V
p52
sS'RemarkPYInitial'
p53
g52
sS'Uin'
p54
I547102516
sS'AppAccountFlag'
p55
I0
sS'VerifyFlag'
p56
I0
sS'Province'
p57
g43
sS'KeyWord'
p58
g43
sS'RemarkName'
p59
g52
sS'PYInitial'
p60
g52
sS'ChatRoomId'
p61
I0
sS'HideInputBarFlag'
p62
I0
sVHeadImgFlag
p63
I1
sS'EncryChatRoomId'
p64
g43
sS'AttrStatus'
p65
I0
sS'SnsFlag'
p66
I0
sS'MemberCount'
p67
I0
sVWebWxPluginSwitch
p68
I0
sS'Alias'
p69
g43
sS'Signature'
p70
g52
sS'ContactFlag'
p71
I0
sS'NickName'
p72
V\u738b\u8005\u5c0f\u673a
p73
sS'RemarkPYQuanPin'
p74
g52
sS'HeadImgUrl'
p75
V/cgi-bin/mmwebwx-bin/webwxgeticon?seq=538031821&username=@6f349e5e95aa664346ae4ba60a8ba0ce29f0f91689620d4d0efa6f881919fd99&skey=@crypt_f18ebe9c_970944b1cd5666b9e429e75bd09969e5
p76
sS'Sex'
p77
I0
sS'StarFriend'
p78
I0
sS'Statues'
p79
I0
stp80
Rp81
I1
bag34
(g38
g39
(dp82
VUserName
p83
V@f30e206223a566b7d86f3ecbc6839a98834e3a04a7df0e6324015b24d1c1767f
p84
sVCity
p85
g52
sVSnsFlag
p86
I49
sVDisplayName
p87
g52
sVUniFriend
p88
I0
sVMemberCount
p89
I0
sVOwnerUin
p90
I0
sVMemberList
p91
g50
sVAlias
p92
g52
sVPYQuanPin
p93
Vwangze
p94
sVSignature
p95
g52
sVRemarkPYInitial
p96
VWANG15858285967
p97
sVContactFlag
p98
I3
sVUin
p99
I0
sVNickName
p100
V\u738b\u6cfd
p101
sVAppAccountFlag
p102
I0
sVVerifyFlag
p103
I0
sVRemarkPYQuanPin
p104
Vwang15858285967
p105
sVHeadImgUrl
p106
V/cgi-bin/mmwebwx-bin/webwxgeticon?seq=661243204&username=@f30e206223a566b7d86f3ecbc6839a98834e3a04a7df0e6324015b24d1c1767f&skey=@crypt_f18ebe9c_970944b1cd5666b9e429e75bd09969e5
p107
sVKeyWord
p108
g52
sVProvince
p109
g52
sVPYInitial
p110
VWZ
p111
sVRemarkName
p112
Vwang15858285967
p113
sVStarFriend
p114
I0
sVSex
p115
I0
sVIsOwner
p116
I0
sVHideInputBarFlag
p117
I0
sVChatRoomId
p118
I0
sVEncryChatRoomId
p119
g52
sVAttrStatus
p120
I98405
sVStatues
p121
I0
stp122
Rp123
I1
bag34
(g38
g39
(dp124
VUserName
p125
V@c1485fb4a7cba3ab2c161a6cb26373fed7565cb2c0368aeb975e868543102d09
p126
sVCity
p127
V\u676d\u5dde
p128
sVSnsFlag
p129
I17
sVDisplayName
p130
g52
sVUniFriend
p131
I0
sVMemberCount
p132
I0
sVOwnerUin
p133
I0
sVMemberList
p134
g50
sVAlias
p135
g52
sVPYQuanPin
p136
Vxiaojiang
p137
sVSignature
p138
V\u65f6\u95f4\u5bf9\u4e86\uff0c\u5c31\u53d1\u5149\u53d1\u70ed\u5427
p139
sVRemarkPYInitial
p140
g52
sVContactFlag
p141
I3
sVUin
p142
I0
sVNickName
p143
V\u5c0f\u59dc
p144
sVAppAccountFlag
p145
I0
sVVerifyFlag
p146
I0
sVRemarkPYQuanPin
p147
g52
sVHeadImgUrl
p148
V/cgi-bin/mmwebwx-bin/webwxgeticon?seq=661242916&username=@c1485fb4a7cba3ab2c161a6cb26373fed7565cb2c0368aeb975e868543102d09&skey=@crypt_f18ebe9c_970944b1cd5666b9e429e75bd09969e5
p149
sVKeyWord
p150
g52
sVProvince
p151
V\u6d59\u6c5f
p152
sVPYInitial
p153
VXJ
p154
sVRemarkName
p155
g52
sVStarFriend
p156
I0
sVSex
p157
I1
sVIsOwner
p158
I0
sVHideInputBarFlag
p159
I0
sVChatRoomId
p160
I0
sVEncryChatRoomId
p161
g52
sVAttrStatus
p162
I16886269
sVStatues
p163
I0
stp164
Rp165
I1
bag34
(g38
g39
(dp166
VUserName
p167
V@ef757057df05960c686f954c593d0680de1d495da5bec93c211645fceaeaf340
p168
sVCity
p169
V\u671d\u9633
p170
sVSnsFlag
p171
I1
sVDisplayName
p172
g52
sVUniFriend
p173
I0
sVMemberCount
p174
I0
sVOwnerUin
p175
I0
sVMemberList
p176
g50
sVAlias
p177
g52
sVPYQuanPin
p178
Vwangzhezhuanjikongjie
p179
sVSignature
p180
g52
sVRemarkPYInitial
p181
g52
sVContactFlag
p182
I3
sVUin
p183
I0
sVNickName
p184
V\u738b\u8005\u4e13\u673a\u7a7a\u59d0
p185
sVAppAccountFlag
p186
I0
sVVerifyFlag
p187
I0
sVRemarkPYQuanPin
p188
g52
sVHeadImgUrl
p189
V/cgi-bin/mmwebwx-bin/webwxgeticon?seq=661241781&username=@ef757057df05960c686f954c593d0680de1d495da5bec93c211645fceaeaf340&skey=@crypt_f18ebe9c_970944b1cd5666b9e429e75bd09969e5
p190
sVKeyWord
p191
g52
sVProvince
p192
V\u5317\u4eac
p193
sVPYInitial
p194
VWZZJKJ
p195
sVRemarkName
p196
g52
sVStarFriend
p197
I0
sVSex
p198
I1
sVIsOwner
p199
I0
sVHideInputBarFlag
p200
I0
sVChatRoomId
p201
I0
sVEncryChatRoomId
p202
g52
sVAttrStatus
p203
I2147487781
sVStatues
p204
I0
stp205
Rp206
I1
bag34
(g38
g39
(dp207
VUserName
p208
V@e54f9f22648c5c89ae7df2c3615e060b000f81177c6bcee23ddc25f557ec8da1
p209
sVCity
p210
V\u676d\u5dde
p211
sVSnsFlag
p212
I1
sVDisplayName
p213
g52
sVUniFriend
p214
I0
sVMemberCount
p215
I0
sVOwnerUin
p216
I0
sVMemberList
p217
g50
sVAlias
p218
g52
sVPYQuanPin
p219
Vwangzhezhuanjikongshao
p220
sVSignature
p221
V\u5171\u4eab\u7ba1\u5bb6\uff0c\u627e\u5230\u5c5e\u4e8e\u81ea\u5df1\u7684\u4eba\u8109\u5708\u5b50
p222
sVRemarkPYInitial
p223
g52
sVContactFlag
p224
I3
sVUin
p225
I0
sVNickName
p226
V\u738b\u8005\u4e13\u673a \u7a7a\u5c11
p227
sVAppAccountFlag
p228
I0
sVVerifyFlag
p229
I0
sVRemarkPYQuanPin
p230
g52
sVHeadImgUrl
p231
V/cgi-bin/mmwebwx-bin/webwxgeticon?seq=661242024&username=@e54f9f22648c5c89ae7df2c3615e060b000f81177c6bcee23ddc25f557ec8da1&skey=@crypt_f18ebe9c_970944b1cd5666b9e429e75bd09969e5
p232
sVKeyWord
p233
g52
sVProvince
p234
V\u6d59\u6c5f
p235
sVPYInitial
p236
VWZZJKS
p237
sVRemarkName
p238
g52
sVStarFriend
p239
I0
sVSex
p240
I1
sVIsOwner
p241
I0
sVHideInputBarFlag
p242
I0
sVChatRoomId
p243
I0
sVEncryChatRoomId
p244
g52
sVAttrStatus
p245
I17010693
sVStatues
p246
I0
stp247
Rp248
I1
bag34
(g38
g39
(dp249
VUserName
p250
V@50b66a52d45296f6c5a5fd6f76c79567df33d9fce3bd2130292c3d3dba06c53a
p251
sVCity
p252
V\u5e7f\u5dde
p253
sVSnsFlag
p254
I1
sVDisplayName
p255
g52
sVUniFriend
p256
I0
sVMemberCount
p257
I0
sVOwnerUin
p258
I0
sVMemberList
p259
g50
sVAlias
p260
g52
sVPYQuanPin
p261
Vwangzhezhuanjikefu
p262
sVSignature
p263
V\u738b\u8005\u4e13\u4eab\u670d\u52a1\u8bf7\u79c1\u804a\u6211
p264
sVRemarkPYInitial
p265
g52
sVContactFlag
p266
I3
sVUin
p267
I0
sVNickName
p268
V\u738b\u8005\u4e13\u673a\u5ba2\u670d
p269
sVAppAccountFlag
p270
I0
sVVerifyFlag
p271
I0
sVRemarkPYQuanPin
p272
g52
sVHeadImgUrl
p273
V/cgi-bin/mmwebwx-bin/webwxgeticon?seq=661242287&username=@50b66a52d45296f6c5a5fd6f76c79567df33d9fce3bd2130292c3d3dba06c53a&skey=@crypt_f18ebe9c_970944b1cd5666b9e429e75bd09969e5
p274
sVKeyWord
p275
g52
sVProvince
p276
V\u5e7f\u4e1c
p277
sVPYInitial
p278
VWZZJKF
p279
sVRemarkName
p280
g52
sVStarFriend
p281
I0
sVSex
p282
I2
sVIsOwner
p283
I0
sVHideInputBarFlag
p284
I0
sVChatRoomId
p285
I0
sVEncryChatRoomId
p286
g52
sVAttrStatus
p287
I233509
sVStatues
p288
I0
stp289
Rp290
I1
bag34
(g38
g39
(dp291
VUserName
p292
V@2419faeaf9b97b33ab3d58f5f3d84f3349f6d2ede6808f8ce7c0dd2c0e35f77d
p293
sVCity
p294
g52
sVSnsFlag
p295
I49
sVDisplayName
p296
g52
sVUniFriend
p297
I0
sVMemberCount
p298
I0
sVOwnerUin
p299
I0
sVMemberList
p300
g50
sVAlias
p301
g52
sVPYQuanPin
p302
Vzhangjianfeng
p303
sVSignature
p304
V\u53bb\u4e91\u5357
p305
sVRemarkPYInitial
p306
g52
sVContactFlag
p307
I65539
sVUin
p308
I0
sVNickName
p309
V\u7ae0\u5efa\u70fd
p310
sVAppAccountFlag
p311
I0
sVVerifyFlag
p312
I0
sVRemarkPYQuanPin
p313
g52
sVHeadImgUrl
p314
V/cgi-bin/mmwebwx-bin/webwxgeticon?seq=661241774&username=@2419faeaf9b97b33ab3d58f5f3d84f3349f6d2ede6808f8ce7c0dd2c0e35f77d&skey=@crypt_f18ebe9c_970944b1cd5666b9e429e75bd09969e5
p315
sVKeyWord
p316
Vzha
p317
sVProvince
p318
g52
sVPYInitial
p319
VZJF
p320
sVRemarkName
p321
g52
sVStarFriend
p322
I0
sVSex
p323
I1
sVIsOwner
p324
I0
sVHideInputBarFlag
p325
I0
sVChatRoomId
p326
I0
sVEncryChatRoomId
p327
g52
sVAttrStatus
p328
I111719
sVStatues
p329
I0
stp330
Rp331
I1
bag34
(g38
g39
(dp332
VUserName
p333
V@72f41481acc11a916eb21c98439217e2
p334
sVCity
p335
V\u6d77\u6dc0
p336
sVSnsFlag
p337
I177
sVDisplayName
p338
g52
sVUniFriend
p339
I0
sVMemberCount
p340
I0
sVOwnerUin
p341
I0
sVMemberList
p342
g50
sVAlias
p343
g52
sVPYQuanPin
p344
VlaoK
p345
sVSignature
p346
V\u6316\u4e2a\u841d\u535c\u5751\u57cb\u841d\u535c......
p347
sVRemarkPYInitial
p348
g52
sVContactFlag
p349
I3
sVUin
p350
I0
sVNickName
p351
V\u8001K
p352
sVAppAccountFlag
p353
I0
sVVerifyFlag
p354
I0
sVRemarkPYQuanPin
p355
g52
sVHeadImgUrl
p356
V/cgi-bin/mmwebwx-bin/webwxgeticon?seq=654710029&username=@72f41481acc11a916eb21c98439217e2&skey=@crypt_f18ebe9c_970944b1cd5666b9e429e75bd09969e5
p357
sVKeyWord
p358
Vfla
p359
sVProvince
p360
V\u5317\u4eac
p361
sVPYInitial
p362
VLK
p363
sVRemarkName
p364
g52
sVStarFriend
p365
I0
sVSex
p366
I1
sVIsOwner
p367
I0
sVHideInputBarFlag
p368
I0
sVChatRoomId
p369
I0
sVEncryChatRoomId
p370
g52
sVAttrStatus
p371
I4433959
sVStatues
p372
I0
stp373
Rp374
I1
bag34
(g38
g39
(dp375
VUserName
p376
V@9d6c422b278745266e75021398305c986ca230336b01c19a1bca54deb2f42a94
p377
sVCity
p378
V\u676d\u5dde
p379
sVSnsFlag
p380
I17
sVDisplayName
p381
g52
sVUniFriend
p382
I0
sVMemberCount
p383
I0
sVOwnerUin
p384
I0
sVMemberList
p385
g50
sVAlias
p386
g52
sVPYQuanPin
p387
Vbiaobiao
p388
sVSignature
p389
V\u4f60\u82e5\u76db\u5f00\uff0c\u6e05\u98ce\u81ea\u6765\u3002
p390
sVRemarkPYInitial
p391
VERWIN
p392
sVContactFlag
p393
I1
sVUin
p394
I0
sVNickName
p395
V\u6807\u6807
p396
sVAppAccountFlag
p397
I0
sVVerifyFlag
p398
I0
sVRemarkPYQuanPin
p399
VErwin
p400
sVHeadImgUrl
p401
V/cgi-bin/mmwebwx-bin/webwxgeticon?seq=661242558&username=@9d6c422b278745266e75021398305c986ca230336b01c19a1bca54deb2f42a94&skey=@crypt_f18ebe9c_970944b1cd5666b9e429e75bd09969e5
p402
sVKeyWord
p403
g52
sVProvince
p404
V\u6d59\u6c5f
p405
sVPYInitial
p406
VBB
p407
sVRemarkName
p408
VErwin
p409
sVStarFriend
p410
I0
sVSex
p411
I1
sVIsOwner
p412
I0
sVHideInputBarFlag
p413
I0
sVChatRoomId
p414
I0
sVEncryChatRoomId
p415
g52
sVAttrStatus
p416
I68645
sVStatues
p417
I0
stp418
Rp419
I1
bag34
(g38
g39
(dp420
VUserName
p421
V@64b6b2e870eeaaab5e1193951bc08faacbc9920259c16f0fb7aac486bd3d8864
p422
sVCity
p423
g52
sVSnsFlag
p424
I17
sVDisplayName
p425
g52
sVUniFriend
p426
I0
sVMemberCount
p427
I0
sVOwnerUin
p428
I0
sVMemberList
p429
g50
sVAlias
p430
g52
sVPYQuanPin
p431
Vyunong
p432
sVSignature
p433
V\u7b49\u98ce\u6765
p434
sVRemarkPYInitial
p435
VHENGSHAO123456
p436
sVContactFlag
p437
I3
sVUin
p438
I0
sVNickName
p439
V\u96e8\u519c
p440
sVAppAccountFlag
p441
I0
sVVerifyFlag
p442
I0
sVRemarkPYQuanPin
p443
Vhengshao123456
p444
sVHeadImgUrl
p445
V/cgi-bin/mmwebwx-bin/webwxgeticon?seq=661241778&username=@64b6b2e870eeaaab5e1193951bc08faacbc9920259c16f0fb7aac486bd3d8864&skey=@crypt_f18ebe9c_970944b1cd5666b9e429e75bd09969e5
p446
sVKeyWord
p447
g52
sVProvince
p448
g52
sVPYInitial
p449
VYN
p450
sVRemarkName
p451
Vhengshao123456
p452
sVStarFriend
p453
I0
sVSex
p454
I1
sVIsOwner
p455
I0
sVHideInputBarFlag
p456
I0
sVChatRoomId
p457
I0
sVEncryChatRoomId
p458
g52
sVAttrStatus
p459
I104485
sVStatues
p460
I0
stp461
Rp462
I1
bag34
(g38
g39
(dp463
VUserName
p464
V@5469ba36f90e9ccdd611422a6c102dbb
p465
sVCity
p466
V\u592a\u539f
p467
sVSnsFlag
p468
I1
sVMemberCount
p469
I0
sVMemberList
p470
g50
sVAlias
p471
g52
sVSignature
p472
g52
sVContactFlag
p473
I3
sVNickName
p474
Vzang
p475
sVHideInputBarFlag
p476
I0
sVVerifyFlag
p477
I0
sVProvince
p478
V\u5c71\u897f
p479
sVStatues
p480
I0
sVKeyWord
p481
Vzyx
p482
sVRemarkName
p483
g52
sVHeadImgUrl
p484
V/cgi-bin/mmwebwx-bin/webwxgeticon?seq=661243862&username=@5469ba36f90e9ccdd611422a6c102dbb&skey=@crypt_f18ebe9c_970944b1cd5666b9e429e75bd09969e5
p485
sVSex
p486
I1
sVContactType
p487
I0
sVChatRoomOwner
p488
g52
sVAttrStatus
p489
I2147602919
sVHeadImgUpdateFlag
p490
I1
stp491
Rp492
I1
batp493
Rp494
I1
bsS'chatroomList'
p495
g34
(g35
g36
(lp496
g34
(cstorage.templates
Chatroom
p497
g39
(dp498
VUserName
p499
V@@49c2d70f7508ed68d2207ed23cbed3d87d1231be9ed3331dd67ee19bdfe860d3
p500
sVCity
p501
g52
sVDisplayName
p502
g52
sVUniFriend
p503
I0
sS'Self'
p504
g34
(cstorage.templates
ChatroomMember
p505
g39
(dp506
VUserName
p507
V@6f349e5e95aa664346ae4ba60a8ba0ce29f0f91689620d4d0efa6f881919fd99
p508
sVRemarkPYQuanPin
p509
g52
sVDisplayName
p510
g52
sVKeyWord
p511
g52
sVPYInitial
p512
g52
sVUin
p513
I0
sg47
g50
sVRemarkPYInitial
p514
g52
sVPYQuanPin
p515
g52
sVMemberStatus
p516
I0
sVNickName
p517
V\u738b\u8005\u5c0f\u673a
p518
sVAttrStatus
p519
I234021
stp520
Rp521
I1
bsVMemberList
p522
g34
(g35
g36
(lp523
g34
(g505
g39
(dp524
VUserName
p525
V@f30e206223a566b7d86f3ecbc6839a98834e3a04a7df0e6324015b24d1c1767f
p526
sVRemarkPYQuanPin
p527
g52
sVDisplayName
p528
g52
sVKeyWord
p529
g52
sVPYInitial
p530
g52
sVUin
p531
I0
sg47
g50
sVMemberStatus
p532
I0
sVPYQuanPin
p533
g52
sVRemarkPYInitial
p534
g52
sVNickName
p535
V\u738b\u6cfd
p536
sVAttrStatus
p537
I98405
stp538
Rp539
I1
bag34
(g505
g39
(dp540
VUserName
p541
V@64b6b2e870eeaaab5e1193951bc08faacbc9920259c16f0fb7aac486bd3d8864
p542
sVRemarkPYQuanPin
p543
g52
sVDisplayName
p544
g52
sVKeyWord
p545
g52
sVPYInitial
p546
g52
sVUin
p547
I0
sg47
g50
sVMemberStatus
p548
I0
sVPYQuanPin
p549
g52
sVRemarkPYInitial
p550
g52
sVNickName
p551
V\u96e8\u519c
p552
sVAttrStatus
p553
I104485
stp554
Rp555
I1
bag34
(g505
g39
(dp556
VUserName
p557
V@52f2e0b495ae69893ddc6777335a17b1
p558
sVRemarkPYQuanPin
p559
g52
sVDisplayName
p560
g52
sVKeyWord
p561
g52
sVPYInitial
p562
g52
sVUin
p563
I0
sg47
g50
sVMemberStatus
p564
I0
sVPYQuanPin
p565
g52
sVRemarkPYInitial
p566
g52
sVNickName
p567
V\u3010\u5c0f\u65b0\u3011
p568
sVAttrStatus
p569
I241767
stp570
Rp571
I1
bag34
(g505
g39
(dp572
VUserName
p573
V@c1485fb4a7cba3ab2c161a6cb26373fed7565cb2c0368aeb975e868543102d09
p574
sVRemarkPYQuanPin
p575
g52
sVDisplayName
p576
g52
sVKeyWord
p577
g52
sVPYInitial
p578
g52
sVUin
p579
I0
sg47
g50
sVMemberStatus
p580
I0
sVPYQuanPin
p581
g52
sVRemarkPYInitial
p582
g52
sVNickName
p583
V\u5c0f\u59dc
p584
sVAttrStatus
p585
I16886269
stp586
Rp587
I1
bag34
(g505
g39
(dp588
g507
g508
sg509
g52
sg510
g52
sg511
g52
sg512
g52
sg513
I0
sg47
g50
sg516
I0
sg515
g52
sg514
g52
sg517
g518
sg519
I234021
stp589
Rp590
I1
bag34
(g505
g39
(dp591
VUserName
p592
V@df04b7e57c740b691dd1480b68e6c26f6faae41f1e7f2ebd7a653ca718cc8263
p593
sVRemarkPYQuanPin
p594
g52
sVDisplayName
p595
g52
sVKeyWord
p596
g52
sVPYInitial
p597
g52
sVUin
p598
I0
sg47
g50
sVMemberStatus
p599
I0
sVPYQuanPin
p600
g52
sVRemarkPYInitial
p601
g52
sVNickName
p602
V\u672c\u4eba\u4e13\u7528
p603
sVAttrStatus
p604
I98341
stp605
Rp606
I1
bag34
(g505
g39
(dp607
VUserName
p608
V@5469ba36f90e9ccdd611422a6c102dbb
p609
sVRemarkPYQuanPin
p610
g52
sVDisplayName
p611
g52
sVKeyWord
p612
g52
sVPYInitial
p613
g52
sVUin
p614
I0
sg47
g50
sVMemberStatus
p615
I0
sVPYQuanPin
p616
g52
sVRemarkPYInitial
p617
g52
sVNickName
p618
Vzang
p619
sVAttrStatus
p620
I2147602919
stp621
Rp622
I1
bag34
(g505
g39
(dp623
VUserName
p624
V@9d6c422b278745266e75021398305c986ca230336b01c19a1bca54deb2f42a94
p625
sVRemarkPYQuanPin
p626
g52
sVDisplayName
p627
g52
sVKeyWord
p628
g52
sVPYInitial
p629
g52
sVUin
p630
I0
sg47
g50
sVMemberStatus
p631
I0
sVPYQuanPin
p632
g52
sVRemarkPYInitial
p633
g52
sVNickName
p634
V\u6807\u6807
p635
sVAttrStatus
p636
I68645
stp637
Rp638
I1
bag34
(g505
g39
(dp639
VUserName
p640
V@a9e6f1694c42beeaf57790436dc157df
p641
sVRemarkPYQuanPin
p642
g52
sVDisplayName
p643
g52
sVKeyWord
p644
g52
sVPYInitial
p645
g52
sVUin
p646
I0
sg47
g50
sVMemberStatus
p647
I0
sVPYQuanPin
p648
g52
sVRemarkPYInitial
p649
g52
sVNickName
p650
V\u6781\u5ba2Sen
p651
sVAttrStatus
p652
I105317
stp653
Rp654
I1
batp655
Rp656
I1
bsVPYQuanPin
p657
g52
sVRemarkPYInitial
p658
g52
sVSex
p659
I0
sVAppAccountFlag
p660
I0
sVVerifyFlag
p661
I0
sVProvince
p662
g52
sVKeyWord
p663
g52
sVRemarkName
p664
g52
sVPYInitial
p665
g52
sVIsOwner
p666
I0
sVChatRoomId
p667
I0
sVContactType
p668
I0
sVHideInputBarFlag
p669
I0
sVEncryChatRoomId
p670
g52
sVAttrStatus
p671
I0
sVSnsFlag
p672
I0
sVMemberCount
p673
I9
sVOwnerUin
p674
I0
sVAlias
p675
g52
sS'IsAdmin'
p676
NsVSignature
p677
g52
sVContactFlag
p678
I2
sVNickName
p679
V\u6d4b\u8bd54
p680
sVChatRoomOwner
p681
V@f30e206223a566b7d86f3ecbc6839a98834e3a04a7df0e6324015b24d1c1767f
p682
sVRemarkPYQuanPin
p683
g52
sVHeadImgUrl
p684
V/cgi-bin/mmwebwx-bin/webwxgetheadimg?seq=0&username=@@49c2d70f7508ed68d2207ed23cbed3d87d1231be9ed3331dd67ee19bdfe860d3&skey=@crypt_f18ebe9c_970944b1cd5666b9e429e75bd09969e5
p685
sVUin
p686
I0
sVStarFriend
p687
I0
sVStatues
p688
I1
sVHeadImgUpdateFlag
p689
I1
stp690
Rp691
I1
bag34
(g497
g39
(dp692
VUserName
p693
V@@c0cf2b20e2316fae1dccf69d82091054dddc84ccda6f99d949f76583ae16c42d
p694
sVCity
p695
g52
sVDisplayName
p696
g52
sVUniFriend
p697
I0
sg504
g34
(g38
g39
(dp698
g41
g31
sg42
g43
sg44
g43
sg45
I0
sg47
g50
sg51
g52
sg53
g52
sg77
I0
sg55
I0
sg56
I0
sg57
g43
sg58
g43
sg59
g52
sg60
g52
sg61
I0
sg62
I0
sg63
I1
sg64
g43
sg65
I0
sg68
I0
sg66
I0
sg67
I0
sg46
I0
sg69
g43
sg70
g52
sg71
I0
sg72
g73
sg74
g52
sg75
g76
sg54
I547102516
sg78
I0
sg79
I0
stp699
Rp700
I1
bsVMemberList
p701
g34
(g35
g36
(lp702
tp703
Rp704
I1
bsVPYQuanPin
p705
g52
sVRemarkPYInitial
p706
g52
sVSex
p707
I0
sVAppAccountFlag
p708
I0
sVVerifyFlag
p709
I0
sVProvince
p710
g52
sVKeyWord
p711
g52
sVRemarkName
p712
g52
sVPYInitial
p713
g52
sVIsOwner
p714
I0
sVChatRoomId
p715
I0
sVHideInputBarFlag
p716
I0
sVEncryChatRoomId
p717
g52
sVAttrStatus
p718
I0
sVSnsFlag
p719
I0
sVMemberCount
p720
I8
sVOwnerUin
p721
I0
sVAlias
p722
g52
sg676
NsVSignature
p723
g52
sVContactFlag
p724
I0
sVNickName
p725
V\u738b\u8005\u6d4b\u8bd5\u7fa4
p726
sVRemarkPYQuanPin
p727
g52
sVHeadImgUrl
p728
V/cgi-bin/mmwebwx-bin/webwxgetheadimg?seq=0&username=@@c0cf2b20e2316fae1dccf69d82091054dddc84ccda6f99d949f76583ae16c42d&skey=@crypt_f18ebe9c_970944b1cd5666b9e429e75bd09969e5
p729
sVUin
p730
I0
sVStarFriend
p731
I0
sVStatues
p732
I1
stp733
Rp734
I1
bag34
(g497
g39
(dp735
VUserName
p736
V@@9bb3bdeb0c646b262868134ecdfca3b8f5baff75397ceca4f434c286bc79755e
p737
sVCity
p738
g52
sVDisplayName
p739
g52
sVUniFriend
p740
I0
sg504
g34
(g38
g39
(dp741
g41
g31
sg42
g43
sg44
g43
sg45
I0
sg47
g50
sg51
g52
sg53
g52
sg77
I0
sg55
I0
sg56
I0
sg57
g43
sg58
g43
sg59
g52
sg60
g52
sg61
I0
sg62
I0
sg63
I1
sg64
g43
sg65
I0
sg68
I0
sg66
I0
sg67
I0
sg46
I0
sg69
g43
sg70
g52
sg71
I0
sg72
g73
sg74
g52
sg75
g76
sg54
I547102516
sg78
I0
sg79
I0
stp742
Rp743
I1
bsVMemberList
p744
g34
(g35
g36
(lp745
tp746
Rp747
I1
bsVPYQuanPin
p748
g52
sVRemarkPYInitial
p749
g52
sVSex
p750
I0
sVAppAccountFlag
p751
I0
sVVerifyFlag
p752
I0
sVProvince
p753
g52
sVKeyWord
p754
g52
sVRemarkName
p755
g52
sVPYInitial
p756
g52
sVIsOwner
p757
I0
sVChatRoomId
p758
I0
sVHideInputBarFlag
p759
I0
sVEncryChatRoomId
p760
g52
sVAttrStatus
p761
I0
sVSnsFlag
p762
I0
sVMemberCount
p763
I7
sVOwnerUin
p764
I0
sVAlias
p765
g52
sg676
NsVSignature
p766
g52
sVContactFlag
p767
I0
sVNickName
p768
V777
p769
sVRemarkPYQuanPin
p770
g52
sVHeadImgUrl
p771
V/cgi-bin/mmwebwx-bin/webwxgetheadimg?seq=0&username=@@9bb3bdeb0c646b262868134ecdfca3b8f5baff75397ceca4f434c286bc79755e&skey=@crypt_f18ebe9c_970944b1cd5666b9e429e75bd09969e5
p772
sVUin
p773
I0
sVStarFriend
p774
I0
sVStatues
p775
I1
stp776
Rp777
I1
bag34
(g497
g39
(dp778
VUserName
p779
V@@99de32189aa751361c0a9e7a3525fb572ebfe159e018d3469d39f8b06004dd7a
p780
sVCity
p781
g52
sVDisplayName
p782
g52
sVUniFriend
p783
I0
sg504
g34
(g38
g39
(dp784
g41
g31
sg42
g43
sg44
g43
sg45
I0
sg47
g50
sg51
g52
sg53
g52
sg77
I0
sg55
I0
sg56
I0
sg57
g43
sg58
g43
sg59
g52
sg60
g52
sg61
I0
sg62
I0
sg63
I1
sg64
g43
sg65
I0
sg68
I0
sg66
I0
sg67
I0
sg46
I0
sg69
g43
sg70
g52
sg71
I0
sg72
g73
sg74
g52
sg75
g76
sg54
I547102516
sg78
I0
sg79
I0
stp785
Rp786
I1
bsVMemberList
p787
g34
(g35
g36
(lp788
tp789
Rp790
I1
bsVPYQuanPin
p791
g52
sVRemarkPYInitial
p792
g52
sVSex
p793
I0
sVAppAccountFlag
p794
I0
sVVerifyFlag
p795
I0
sVProvince
p796
g52
sVKeyWord
p797
g52
sVRemarkName
p798
g52
sVPYInitial
p799
g52
sVIsOwner
p800
I0
sVChatRoomId
p801
I0
sVHideInputBarFlag
p802
I0
sVEncryChatRoomId
p803
g52
sVAttrStatus
p804
I0
sVSnsFlag
p805
I0
sVMemberCount
p806
I19
sVOwnerUin
p807
I0
sVAlias
p808
g52
sg676
NsVSignature
p809
g52
sVContactFlag
p810
I0
sVNickName
p811
V\u738b\u8005\u4e13\u673a\u4e58\u52a1\u7ec4
p812
sVRemarkPYQuanPin
p813
g52
sVHeadImgUrl
p814
V/cgi-bin/mmwebwx-bin/webwxgetheadimg?seq=0&username=@@99de32189aa751361c0a9e7a3525fb572ebfe159e018d3469d39f8b06004dd7a&skey=@crypt_f18ebe9c_970944b1cd5666b9e429e75bd09969e5
p815
sVUin
p816
I0
sVStarFriend
p817
I0
sVStatues
p818
I1
stp819
Rp820
I1
bag34
(g497
g39
(dp821
VUserName
p822
V@@7dd654b317427330ca5971c6a4ba22d2ed638f3ef5ba0e4ca788d5957ff78a01
p823
sVCity
p824
g52
sVSnsFlag
p825
I0
sVMemberCount
p826
I5
sS'Self'
p827
g34
(g505
g39
(dp828
VUserName
p829
V@6f349e5e95aa664346ae4ba60a8ba0ce29f0f91689620d4d0efa6f881919fd99
p830
sVRemarkPYQuanPin
p831
g52
sVDisplayName
p832
g52
sVKeyWord
p833
g52
sVPYInitial
p834
g52
sVUin
p835
I0
sS'MemberList'
p836
g50
sVMemberStatus
p837
I0
sVPYQuanPin
p838
g52
sVRemarkPYInitial
p839
g52
sVNickName
p840
V\u738b\u8005\u5c0f\u673a
p841
sVAttrStatus
p842
I234021
stp843
Rp844
I1
bsS'OwnerUin'
p845
I0
sVMemberList
p846
g34
(g35
g36
(lp847
g34
(g505
g39
(dp848
VUserName
p849
V@5469ba36f90e9ccdd611422a6c102dbb
p850
sVRemarkPYQuanPin
p851
g52
sVDisplayName
p852
g52
sVKeyWord
p853
g52
sVPYInitial
p854
g52
sVUin
p855
I0
sg836
g50
sVMemberStatus
p856
I0
sVPYQuanPin
p857
g52
sVRemarkPYInitial
p858
g52
sVNickName
p859
Vzang
p860
sVAttrStatus
p861
I2147602919
stp862
Rp863
I1
bag844
ag34
(g505
g39
(dp864
VUserName
p865
V@f30e206223a566b7d86f3ecbc6839a98834e3a04a7df0e6324015b24d1c1767f
p866
sVRemarkPYQuanPin
p867
g52
sVDisplayName
p868
g52
sVKeyWord
p869
g52
sVPYInitial
p870
g52
sVUin
p871
I0
sg836
g50
sVMemberStatus
p872
I0
sVPYQuanPin
p873
g52
sVRemarkPYInitial
p874
g52
sVNickName
p875
V\u738b\u6cfd
p876
sVAttrStatus
p877
I98405
stp878
Rp879
I1
bag34
(g505
g39
(dp880
VUserName
p881
V@64b6b2e870eeaaab5e1193951bc08faacbc9920259c16f0fb7aac486bd3d8864
p882
sVRemarkPYQuanPin
p883
g52
sVDisplayName
p884
g52
sVKeyWord
p885
g52
sVPYInitial
p886
g52
sVUin
p887
I0
sg836
g50
sVMemberStatus
p888
I0
sVPYQuanPin
p889
g52
sVRemarkPYInitial
p890
g52
sVNickName
p891
V\u96e8\u519c
p892
sVAttrStatus
p893
I104485
stp894
Rp895
I1
bag34
(g505
g39
(dp896
VUserName
p897
V@52f2e0b495ae69893ddc6777335a17b1
p898
sVRemarkPYQuanPin
p899
g52
sVDisplayName
p900
g52
sVKeyWord
p901
g52
sVPYInitial
p902
g52
sVUin
p903
I0
sg836
g50
sVMemberStatus
p904
I0
sVPYQuanPin
p905
g52
sVRemarkPYInitial
p906
g52
sVNickName
p907
V\u3010\u5c0f\u65b0\u3011
p908
sVAttrStatus
p909
I241767
stp910
Rp911
I1
batp912
Rp913
I1
bsVAlias
p914
g52
sS'IsAdmin'
p915
NsVSignature
p916
g52
sVContactFlag
p917
I2
sVNickName
p918
V\u6d4b\u8bd55
p919
sVChatRoomOwner
p920
V@f30e206223a566b7d86f3ecbc6839a98834e3a04a7df0e6324015b24d1c1767f
p921
sVVerifyFlag
p922
I0
sVProvince
p923
g52
sVStatues
p924
I1
sVHeadImgUrl
p925
V/cgi-bin/mmwebwx-bin/webwxgetheadimg?seq=0&username=@@7dd654b317427330ca5971c6a4ba22d2ed638f3ef5ba0e4ca788d5957ff78a01&skey=@crypt_f18ebe9c_970944b1cd5666b9e429e75bd09969e5
p926
sVKeyWord
p927
g52
sVRemarkName
p928
g52
sVSex
p929
I0
sVContactType
p930
I0
sVHideInputBarFlag
p931
I0
sVAttrStatus
p932
I0
sVHeadImgUpdateFlag
p933
I1
stp934
Rp935
I1
batp936
Rp937
I1
bsS'nickName'
p938
g73
sS'mpList'
p939
g34
(g35
g36
(lp940
tp941
Rp942
I1
bssS'loginInfo'
p943
(dp944
S'SyncKey'
p945
(dp946
VCount
p947
I9
sVList
p948
(lp949
(dp950
VVal
p951
I661243795
sVKey
p952
I1
sa(dp953
VVal
p954
I661243910
sVKey
p955
I2
sa(dp956
VVal
p957
I661243862
sVKey
p958
I3
sa(dp959
VVal
p960
I661243893
sVKey
p961
I11
sa(dp962
VVal
p963
I661240001
sVKey
p964
I13
sa(dp965
VVal
p966
I1502934473
sVKey
p967
I201
sa(dp968
VVal
p969
I1502932961
sVKey
p970
I203
sa(dp971
VVal
p972
I1502931421
sVKey
p973
I1000
sa(dp974
VVal
p975
I1502931452
sVKey
p976
I1001
sassS'syncUrl'
p977
S'https://webpush.wx.qq.com/cgi-bin/mmwebwx-bin'
p978
sS'skey'
p979
V@crypt_f18ebe9c_970944b1cd5666b9e429e75bd09969e5
p980
sS'wxuin'
p981
V547102516
p982
sS'synckey'
p983
S'1_661243795|2_661243910|3_661243862|11_661243893|13_661240001|201_1502934473|203_1502932961|1000_1502931421|1001_1502931452'
p984
sS'url'
p985
Vhttps://wx.qq.com/cgi-bin/mmwebwx-bin
p986
sS'pass_ticket'
p987
VzWO0iZzRUK2My9%2BYXEsS4GWQDoVLZGFyndwzA9xKzyPBMgaUuGpdjsZCOoVrfvYX
p988
sS'wxsid'
p989
VvQtcGA91hSDHXiPN
p990
sS'User'
p991
g34
(g38
g39
(dp992
g41
g31
sg42
g43
sg44
g43
sg45
I0
sg47
g50
sg51
g52
sg53
g52
sg77
I0
sg55
I0
sg56
I0
sg57
g43
sg58
g43
sg59
g52
sg60
g52
sg61
I0
sg62
I0
sg63
I1
sg64
g43
sg65
I0
sg68
I0
sg66
I0
sg67
I0
sg46
I0
sg69
g43
sg70
g52
sg71
I0
sg72
g73
sg74
g52
sg75
g76
sg54
I547102516
sg78
I0
sg79
I0
stp993
Rp994
I1
bsS'InviteStartCount'
p995
I40
sS'fileUrl'
p996
S'https://file.wx.qq.com/cgi-bin/mmwebwx-bin'
p997
sS'BaseRequest'
p998
(dp999
S'Sid'
p1000
g990
sS'Skey'
p1001
g980
sS'DeviceID'
p1002
g988
sg54
g982
ssS'deviceid'
p1003
S'e951080880114898'
p1004
ss.