(dp0
S'cookies'
p1
(dp2
S'wxloadtime'
p3
S'1502870727'
p4
sS'webwx_data_ticket'
p5
S'gSdUeTISxoitSTJdeDrnlj1H'
p6
sS'wxuin'
p7
S'547102516'
p8
sS'login_frequency'
p9
S'2'
p10
sS'MM_WX_NOTIFY_STATE'
p11
S'1'
p12
sS'MM_WX_SOUND_STATE'
p13
g12
sS'webwx_auth_ticket'
p14
S'CIsBEI21hdcOGoABxdeUhGiT1X7bumBqOJd21h7FRi0nM5piqgKXABa0aDwbB7pt4VxKmDYsHX3D+uQtSN1+4FzJyDvOCGpCgcCDrkA2WFuYkUiNfiLIHlEuWyGs37DzfKQ0VNqqRG2pRVMkkBZrYOI+fKT6dgmAilM031zrtdQPBD2zIUAf+r4pyAE='
p15
sS'last_wxuin'
p16
S'547102516'
p17
sS'webwxuvid'
p18
S'7858519452ac080615f00594b5ae6eae245ce27119e1c235d7da540400554b966346b76aa328e239fa46f2651c6399b6'
p19
sS'wxpluginkey'
p20
S'1502844121'
p21
sS'wxsid'
p22
S'JLsp8izJFUH6ZzHi'
p23
sS'mm_lang'
p24
S'zh_CN'
p25
ssS'version'
p26
S'1.3.8'
p27
sS'storage'
p28
(dp29
S'userName'
p30
V@c16e9422f21cf690c9c56acc3c7b9e7482a03edcbfb8d89d0e6f7c182a4c3a2e
p31
sS'lastInputUserName'
p32
NsS'memberList'
p33
ccopy_reg
_reconstructor
p34
(cstorage.templates
ContactList
p35
c__builtin__
list
p36
(lp37
g34
(cstorage.templates
User
p38
c__builtin__
dict
p39
(dp40
S'UserName'
p41
g31
sS'City'
p42
S''
p43
sS'DisplayName'
p44
g43
sS'UniFriend'
p45
I0
sS'OwnerUin'
p46
I0
sS'MemberList'
p47
g34
(g35
g36
(lp48
tp49
Rp50
I1
bsS'PYQuanPin'
p51
V
p52
sS'RemarkPYInitial'
p53
g52
sS'Uin'
p54
I547102516
sS'AppAccountFlag'
p55
I0
sS'VerifyFlag'
p56
I0
sS'Province'
p57
g43
sS'KeyWord'
p58
g43
sS'RemarkName'
p59
g52
sS'PYInitial'
p60
g52
sS'ChatRoomId'
p61
I0
sS'HideInputBarFlag'
p62
I0
sVHeadImgFlag
p63
I1
sS'EncryChatRoomId'
p64
g43
sS'AttrStatus'
p65
I0
sS'SnsFlag'
p66
I0
sS'MemberCount'
p67
I0
sVWebWxPluginSwitch
p68
I0
sS'Alias'
p69
g43
sS'Signature'
p70
g52
sS'ContactFlag'
p71
I0
sS'NickName'
p72
V\u738b\u8005\u5c0f\u673a
p73
sS'RemarkPYQuanPin'
p74
g52
sS'HeadImgUrl'
p75
V/cgi-bin/mmwebwx-bin/webwxgeticon?seq=1566439706&username=@c16e9422f21cf690c9c56acc3c7b9e7482a03edcbfb8d89d0e6f7c182a4c3a2e&skey=@crypt_f18ebe9c_666a05080b7d935faf16a64a62886f58
p76
sS'Sex'
p77
I0
sS'StarFriend'
p78
I0
sS'Statues'
p79
I0
stp80
Rp81
I1
bag34
(g38
g39
(dp82
VUserName
p83
V@80203dc66029c6af0bff246d1892b415b1357d447624421c8ec725e8af2c6a1e
p84
sVCity
p85
V\u671d\u9633
p86
sVSnsFlag
p87
I1
sVDisplayName
p88
g52
sVUniFriend
p89
I0
sVMemberCount
p90
I0
sVOwnerUin
p91
I0
sVMemberList
p92
g50
sVAlias
p93
g52
sVPYQuanPin
p94
Vwangzhezhuanjikongjie
p95
sVSignature
p96
g52
sVRemarkPYInitial
p97
g52
sVContactFlag
p98
I3
sVUin
p99
I0
sVNickName
p100
V\u738b\u8005\u4e13\u673a\u7a7a\u59d0
p101
sVAppAccountFlag
p102
I0
sVVerifyFlag
p103
I0
sVRemarkPYQuanPin
p104
g52
sVHeadImgUrl
p105
V/cgi-bin/mmwebwx-bin/webwxgeticon?seq=661241781&username=@80203dc66029c6af0bff246d1892b415b1357d447624421c8ec725e8af2c6a1e&skey=@crypt_f18ebe9c_666a05080b7d935faf16a64a62886f58
p106
sVKeyWord
p107
g52
sVProvince
p108
V\u5317\u4eac
p109
sVPYInitial
p110
VWZZJKJ
p111
sVRemarkName
p112
g52
sVIsOwner
p113
I0
sVSex
p114
I1
sVStarFriend
p115
I0
sVHideInputBarFlag
p116
I0
sVChatRoomId
p117
I0
sVEncryChatRoomId
p118
g52
sVAttrStatus
p119
I2147487781
sVStatues
p120
I0
stp121
Rp122
I1
bag34
(g38
g39
(dp123
VUserName
p124
V@b42078643e1b74d42e3b0fc4548d3a10b1a36d36444e277dc85ddbb76edcb467
p125
sVCity
p126
V\u676d\u5dde
p127
sVSnsFlag
p128
I1
sVDisplayName
p129
g52
sVUniFriend
p130
I0
sVMemberCount
p131
I0
sVOwnerUin
p132
I0
sVMemberList
p133
g50
sVAlias
p134
g52
sVPYQuanPin
p135
Vwangzhezhuanjikongshao
p136
sVSignature
p137
V\u5171\u4eab\u7ba1\u5bb6\uff0c\u627e\u5230\u5c5e\u4e8e\u81ea\u5df1\u7684\u4eba\u8109\u5708\u5b50
p138
sVRemarkPYInitial
p139
g52
sVContactFlag
p140
I3
sVUin
p141
I0
sVNickName
p142
V\u738b\u8005\u4e13\u673a \u7a7a\u5c11
p143
sVAppAccountFlag
p144
I0
sVVerifyFlag
p145
I0
sVRemarkPYQuanPin
p146
g52
sVHeadImgUrl
p147
V/cgi-bin/mmwebwx-bin/webwxgeticon?seq=661242024&username=@b42078643e1b74d42e3b0fc4548d3a10b1a36d36444e277dc85ddbb76edcb467&skey=@crypt_f18ebe9c_666a05080b7d935faf16a64a62886f58
p148
sVKeyWord
p149
g52
sVProvince
p150
V\u6d59\u6c5f
p151
sVPYInitial
p152
VWZZJKS
p153
sVRemarkName
p154
g52
sVIsOwner
p155
I0
sVSex
p156
I1
sVStarFriend
p157
I0
sVHideInputBarFlag
p158
I0
sVChatRoomId
p159
I0
sVEncryChatRoomId
p160
g52
sVAttrStatus
p161
I17010693
sVStatues
p162
I0
stp163
Rp164
I1
bag34
(g38
g39
(dp165
VUserName
p166
V@8aac786d53bf3c3446e938d1e500003fc9749e71f5cf5363cbfa726d97bf85e0
p167
sVCity
p168
g52
sVSnsFlag
p169
I17
sVDisplayName
p170
g52
sVUniFriend
p171
I0
sVMemberCount
p172
I0
sVOwnerUin
p173
I0
sVMemberList
p174
g50
sVAlias
p175
g52
sVPYQuanPin
p176
Vyunong
p177
sVSignature
p178
V\u7b49\u98ce\u6765
p179
sVRemarkPYInitial
p180
g52
sVContactFlag
p181
I3
sVUin
p182
I0
sVNickName
p183
V\u96e8\u519c
p184
sVAppAccountFlag
p185
I0
sVVerifyFlag
p186
I0
sVRemarkPYQuanPin
p187
g52
sVHeadImgUrl
p188
V/cgi-bin/mmwebwx-bin/webwxgeticon?seq=661241778&username=@8aac786d53bf3c3446e938d1e500003fc9749e71f5cf5363cbfa726d97bf85e0&skey=@crypt_f18ebe9c_666a05080b7d935faf16a64a62886f58
p189
sVKeyWord
p190
g52
sVProvince
p191
g52
sVPYInitial
p192
VYN
p193
sVRemarkName
p194
g52
sVIsOwner
p195
I0
sVSex
p196
I1
sVStarFriend
p197
I0
sVHideInputBarFlag
p198
I0
sVChatRoomId
p199
I0
sVEncryChatRoomId
p200
g52
sVAttrStatus
p201
I104485
sVStatues
p202
I0
stp203
Rp204
I1
bag34
(g38
g39
(dp205
VUserName
p206
V@c41eb71979a24d0db80db30aac88f245b483ecc0d622512e807d19d1ce7e6996
p207
sVCity
p208
V\u5e7f\u5dde
p209
sVSnsFlag
p210
I1
sVDisplayName
p211
g52
sVUniFriend
p212
I0
sVMemberCount
p213
I0
sVOwnerUin
p214
I0
sVMemberList
p215
g50
sVAlias
p216
g52
sVPYQuanPin
p217
Vwangzhezhuanjikefu
p218
sVSignature
p219
V\u738b\u8005\u4e13\u4eab\u670d\u52a1\u8bf7\u79c1\u804a\u6211
p220
sVRemarkPYInitial
p221
g52
sVContactFlag
p222
I3
sVUin
p223
I0
sVNickName
p224
V\u738b\u8005\u4e13\u673a\u5ba2\u670d
p225
sVAppAccountFlag
p226
I0
sVVerifyFlag
p227
I0
sVRemarkPYQuanPin
p228
g52
sVHeadImgUrl
p229
V/cgi-bin/mmwebwx-bin/webwxgeticon?seq=661242287&username=@c41eb71979a24d0db80db30aac88f245b483ecc0d622512e807d19d1ce7e6996&skey=@crypt_f18ebe9c_666a05080b7d935faf16a64a62886f58
p230
sVKeyWord
p231
g52
sVProvince
p232
V\u5e7f\u4e1c
p233
sVPYInitial
p234
VWZZJKF
p235
sVRemarkName
p236
g52
sVIsOwner
p237
I0
sVSex
p238
I2
sVStarFriend
p239
I0
sVHideInputBarFlag
p240
I0
sVChatRoomId
p241
I0
sVEncryChatRoomId
p242
g52
sVAttrStatus
p243
I233509
sVStatues
p244
I0
stp245
Rp246
I1
bag34
(g38
g39
(dp247
VUserName
p248
V@920b962f85bc4c6a53ee07c9f2363117ce64c490e4d14a0757f93fcfdd1a3c25
p249
sVCity
p250
g52
sVSnsFlag
p251
I49
sVDisplayName
p252
g52
sVUniFriend
p253
I0
sVMemberCount
p254
I0
sVOwnerUin
p255
I0
sVMemberList
p256
g50
sVAlias
p257
g52
sVPYQuanPin
p258
Vzhangjianfeng
p259
sVSignature
p260
V\u53bb\u4e91\u5357
p261
sVRemarkPYInitial
p262
g52
sVContactFlag
p263
I65539
sVUin
p264
I0
sVNickName
p265
V\u7ae0\u5efa\u70fd
p266
sVAppAccountFlag
p267
I0
sVVerifyFlag
p268
I0
sVRemarkPYQuanPin
p269
g52
sVHeadImgUrl
p270
V/cgi-bin/mmwebwx-bin/webwxgeticon?seq=661241774&username=@920b962f85bc4c6a53ee07c9f2363117ce64c490e4d14a0757f93fcfdd1a3c25&skey=@crypt_f18ebe9c_666a05080b7d935faf16a64a62886f58
p271
sVKeyWord
p272
Vzha
p273
sVProvince
p274
g52
sVPYInitial
p275
VZJF
p276
sVRemarkName
p277
g52
sVIsOwner
p278
I0
sVSex
p279
I1
sVStarFriend
p280
I0
sVHideInputBarFlag
p281
I0
sVChatRoomId
p282
I0
sVEncryChatRoomId
p283
g52
sVAttrStatus
p284
I111719
sVStatues
p285
I0
stp286
Rp287
I1
bag34
(g38
g39
(dp288
VUserName
p289
V@51be6430730b0bf6e3acd07f83acc155
p290
sVCity
p291
V\u6d77\u6dc0
p292
sVSnsFlag
p293
I177
sVDisplayName
p294
g52
sVUniFriend
p295
I0
sVMemberCount
p296
I0
sVOwnerUin
p297
I0
sVMemberList
p298
g50
sVAlias
p299
g52
sVPYQuanPin
p300
VlaoK
p301
sVSignature
p302
V\u6316\u4e2a\u841d\u535c\u5751\u57cb\u841d\u535c......
p303
sVRemarkPYInitial
p304
g52
sVContactFlag
p305
I3
sVUin
p306
I0
sVNickName
p307
V\u8001K
p308
sVAppAccountFlag
p309
I0
sVVerifyFlag
p310
I0
sVRemarkPYQuanPin
p311
g52
sVHeadImgUrl
p312
V/cgi-bin/mmwebwx-bin/webwxgeticon?seq=654710029&username=@51be6430730b0bf6e3acd07f83acc155&skey=@crypt_f18ebe9c_666a05080b7d935faf16a64a62886f58
p313
sVKeyWord
p314
Vfla
p315
sVProvince
p316
V\u5317\u4eac
p317
sVPYInitial
p318
VLK
p319
sVRemarkName
p320
g52
sVIsOwner
p321
I0
sVSex
p322
I1
sVStarFriend
p323
I0
sVHideInputBarFlag
p324
I0
sVChatRoomId
p325
I0
sVEncryChatRoomId
p326
g52
sVAttrStatus
p327
I4433959
sVStatues
p328
I0
stp329
Rp330
I1
bag34
(g38
g39
(dp331
VUserName
p332
V@ac2dddbe41a3c43c8f0566e0c17707c0168123b40613f8e374ecb4535c567a1b
p333
sVCity
p334
V\u676d\u5dde
p335
sVSnsFlag
p336
I17
sVDisplayName
p337
g52
sVUniFriend
p338
I0
sVMemberCount
p339
I0
sVOwnerUin
p340
I0
sVMemberList
p341
g50
sVAlias
p342
g52
sVPYQuanPin
p343
Vbiaobiao
p344
sVSignature
p345
V\u4f60\u82e5\u76db\u5f00\uff0c\u6e05\u98ce\u81ea\u6765\u3002
p346
sVRemarkPYInitial
p347
VERWIN
p348
sVContactFlag
p349
I1
sVUin
p350
I0
sVNickName
p351
V\u6807\u6807
p352
sVAppAccountFlag
p353
I0
sVVerifyFlag
p354
I0
sVRemarkPYQuanPin
p355
VErwin
p356
sVHeadImgUrl
p357
V/cgi-bin/mmwebwx-bin/webwxgeticon?seq=661242558&username=@ac2dddbe41a3c43c8f0566e0c17707c0168123b40613f8e374ecb4535c567a1b&skey=@crypt_f18ebe9c_666a05080b7d935faf16a64a62886f58
p358
sVKeyWord
p359
g52
sVProvince
p360
V\u6d59\u6c5f
p361
sVPYInitial
p362
VBB
p363
sVRemarkName
p364
VErwin
p365
sVIsOwner
p366
I0
sVSex
p367
I1
sVStarFriend
p368
I0
sVHideInputBarFlag
p369
I0
sVChatRoomId
p370
I0
sVEncryChatRoomId
p371
g52
sVAttrStatus
p372
I68645
sVStatues
p373
I0
stp374
Rp375
I1
bag34
(g38
g39
(dp376
VUserName
p377
V@51044b99875cd1190d00c2e977219a3839dffa26f93055684428ca84dfdeff4b
p378
sVCity
p379
V\u676d\u5dde
p380
sVDisplayName
p381
g52
sVUniFriend
p382
I0
sVMemberList
p383
g50
sVPYQuanPin
p384
Vxiaojiang
p385
sVRemarkPYInitial
p386
g52
sVUin
p387
I0
sVHideInputBarFlag
p388
I0
sVAppAccountFlag
p389
I0
sVVerifyFlag
p390
I0
sVProvince
p391
V\u6d59\u6c5f
p392
sVKeyWord
p393
g52
sVRemarkName
p394
g52
sVPYInitial
p395
VXJ
p396
sVChatRoomId
p397
I0
sVIsOwner
p398
I0
sVContactType
p399
I0
sVChatRoomOwner
p400
g52
sVEncryChatRoomId
p401
V0
p402
sVAttrStatus
p403
I16886269
sVSnsFlag
p404
I1
sVMemberCount
p405
I0
sVOwnerUin
p406
I0
sVAlias
p407
g52
sVSignature
p408
V\u65f6\u95f4\u5bf9\u4e86\uff0c\u5c31\u53d1\u5149\u53d1\u70ed\u5427
p409
sVContactFlag
p410
I3
sVNickName
p411
V\u5c0f\u59dc
p412
sVRemarkPYQuanPin
p413
g52
sVHeadImgUrl
p414
V/cgi-bin/mmwebwx-bin/webwxgeticon?seq=661242916&username=@51044b99875cd1190d00c2e977219a3839dffa26f93055684428ca84dfdeff4b&skey=@crypt_f18ebe9c_666a05080b7d935faf16a64a62886f58
p415
sVSex
p416
I1
sVStarFriend
p417
I0
sVStatues
p418
I0
sVHeadImgUpdateFlag
p419
I1
stp420
Rp421
I1
batp422
Rp423
I1
bsS'chatroomList'
p424
g34
(g35
g36
(lp425
g34
(cstorage.templates
Chatroom
p426
g39
(dp427
VUserName
p428
V@@7aaeeff613268293f392b65e992f5e2e6e1e12e2e30a20839f5bd446930e3ec7
p429
sVCity
p430
g52
sVDisplayName
p431
g52
sVUniFriend
p432
I0
sS'Self'
p433
g34
(cstorage.templates
ChatroomMember
p434
g39
(dp435
VUserName
p436
V@c16e9422f21cf690c9c56acc3c7b9e7482a03edcbfb8d89d0e6f7c182a4c3a2e
p437
sVRemarkPYQuanPin
p438
g52
sVDisplayName
p439
g52
sVKeyWord
p440
g52
sVPYInitial
p441
g52
sVUin
p442
I0
sg47
g50
sVMemberStatus
p443
I0
sVPYQuanPin
p444
g52
sVRemarkPYInitial
p445
g52
sVNickName
p446
V\u738b\u8005\u5c0f\u673a
p447
sVAttrStatus
p448
I234021
stp449
Rp450
I1
bsVMemberList
p451
g34
(g35
g36
(lp452
g34
(g434
g39
(dp453
VUserName
p454
V@b42078643e1b74d42e3b0fc4548d3a10b1a36d36444e277dc85ddbb76edcb467
p455
sVRemarkPYQuanPin
p456
g52
sVDisplayName
p457
g52
sVKeyWord
p458
g52
sVPYInitial
p459
g52
sVUin
p460
I0
sg47
g50
sVMemberStatus
p461
I0
sVPYQuanPin
p462
g52
sVRemarkPYInitial
p463
g52
sVNickName
p464
V\u738b\u8005\u4e13\u673a \u7a7a\u5c11
p465
sVAttrStatus
p466
I17010693
stp467
Rp468
I1
bag34
(g434
g39
(dp469
VUserName
p470
V@8aac786d53bf3c3446e938d1e500003fc9749e71f5cf5363cbfa726d97bf85e0
p471
sVRemarkPYQuanPin
p472
g52
sVDisplayName
p473
g52
sVKeyWord
p474
g52
sVPYInitial
p475
g52
sVUin
p476
I0
sg47
g50
sVMemberStatus
p477
I0
sVPYQuanPin
p478
g52
sVRemarkPYInitial
p479
g52
sVNickName
p480
V\u96e8\u519c
p481
sVAttrStatus
p482
I104485
stp483
Rp484
I1
bag34
(g434
g39
(dp485
VUserName
p486
V@51044b99875cd1190d00c2e977219a3839dffa26f93055684428ca84dfdeff4b
p487
sVRemarkPYQuanPin
p488
g52
sVDisplayName
p489
g52
sVKeyWord
p490
g52
sVPYInitial
p491
g52
sVUin
p492
I0
sg47
g50
sVMemberStatus
p493
I0
sVPYQuanPin
p494
g52
sVRemarkPYInitial
p495
g52
sVNickName
p496
V\u5c0f\u59dc
p497
sVAttrStatus
p498
I16886269
stp499
Rp500
I1
bag450
ag34
(g434
g39
(dp501
VUserName
p502
V@ac2dddbe41a3c43c8f0566e0c17707c0168123b40613f8e374ecb4535c567a1b
p503
sVRemarkPYQuanPin
p504
g52
sVDisplayName
p505
g52
sVKeyWord
p506
g52
sVPYInitial
p507
g52
sVUin
p508
I0
sg47
g50
sVMemberStatus
p509
I0
sVPYQuanPin
p510
g52
sVRemarkPYInitial
p511
g52
sVNickName
p512
V\u6807\u6807
p513
sVAttrStatus
p514
I68645
stp515
Rp516
I1
batp517
Rp518
I1
bsVPYQuanPin
p519
g52
sVRemarkPYInitial
p520
g52
sVSex
p521
I0
sVHideInputBarFlag
p522
I0
sVAppAccountFlag
p523
I0
sVVerifyFlag
p524
I0
sVProvince
p525
g52
sVKeyWord
p526
g52
sVRemarkName
p527
g52
sVPYInitial
p528
g52
sVIsOwner
p529
I0
sVChatRoomId
p530
I0
sVContactType
p531
I0
sVChatRoomOwner
p532
V@8aac786d53bf3c3446e938d1e500003fc9749e71f5cf5363cbfa726d97bf85e0
p533
sVEncryChatRoomId
p534
g52
sVAttrStatus
p535
I0
sVSnsFlag
p536
I0
sVMemberCount
p537
I5
sVOwnerUin
p538
I0
sVAlias
p539
g52
sS'IsAdmin'
p540
NsVSignature
p541
g52
sVContactFlag
p542
I2
sVNickName
p543
V\u738b\u8005\u6d4b\u8bd5\u7fa4
p544
sVRemarkPYQuanPin
p545
g52
sVHeadImgUrl
p546
V/cgi-bin/mmwebwx-bin/webwxgetheadimg?seq=0&username=@@7aaeeff613268293f392b65e992f5e2e6e1e12e2e30a20839f5bd446930e3ec7&skey=@crypt_f18ebe9c_666a05080b7d935faf16a64a62886f58
p547
sVUin
p548
I0
sVStarFriend
p549
I0
sVStatues
p550
I1
sVHeadImgUpdateFlag
p551
I1
stp552
Rp553
I1
bag34
(g426
g39
(dp554
VUserName
p555
V@@634d3e454d5610bc6bda1b6b24a50337cf72f2f5b075b4da915aa5e99d6b0f46
p556
sVCity
p557
g52
sVDisplayName
p558
g52
sVUniFriend
p559
I0
sg433
g34
(g38
g39
(dp560
g41
g31
sg42
g43
sg44
g43
sg45
I0
sg46
I0
sg47
g34
(g35
g36
(lp561
tp562
Rp563
I1
bsg51
g52
sg53
g52
sg54
I547102516
sg55
I0
sg56
I0
sg57
g43
sg58
g43
sg59
g52
sg60
g52
sg61
I0
sg62
I0
sg63
I1
sg64
g43
sg65
I0
sg66
I0
sg67
I0
sg68
I0
sg69
g43
sg70
g52
sg71
I0
sg72
g73
sg74
g52
sg75
g76
sg77
I0
sg78
I0
sg79
I0
stp564
Rp565
I1
bsVMemberList
p566
g34
(g35
g36
(lp567
tp568
Rp569
I1
bsVPYQuanPin
p570
g52
sVRemarkPYInitial
p571
g52
sVSex
p572
I0
sVAppAccountFlag
p573
I0
sVVerifyFlag
p574
I0
sVProvince
p575
g52
sVKeyWord
p576
g52
sVRemarkName
p577
g52
sVPYInitial
p578
g52
sVIsOwner
p579
I0
sVChatRoomId
p580
I0
sVHideInputBarFlag
p581
I0
sVEncryChatRoomId
p582
g52
sVAttrStatus
p583
I0
sVSnsFlag
p584
I0
sVMemberCount
p585
I19
sVOwnerUin
p586
I0
sVAlias
p587
g52
sg540
NsVSignature
p588
g52
sVContactFlag
p589
I0
sVNickName
p590
V\u738b\u8005\u4e13\u673a\u4e58\u52a1\u7ec4
p591
sVRemarkPYQuanPin
p592
g52
sVHeadImgUrl
p593
V/cgi-bin/mmwebwx-bin/webwxgetheadimg?seq=0&username=@@634d3e454d5610bc6bda1b6b24a50337cf72f2f5b075b4da915aa5e99d6b0f46&skey=@crypt_f18ebe9c_666a05080b7d935faf16a64a62886f58
p594
sVUin
p595
I0
sVStarFriend
p596
I0
sVStatues
p597
I1
stp598
Rp599
I1
bag34
(g426
g39
(dp600
VUserName
p601
V@c16e9422f21cf690c9c56acc3c7b9e7482a03edcbfb8d89d0e6f7c182a4c3a2e
p602
sVCity
p603
g52
sVDisplayName
p604
g52
sVUniFriend
p605
I0
sg433
g34
(g38
g39
(dp606
g41
g31
sg42
g43
sg44
g43
sg45
I0
sg46
I0
sg47
g34
(g35
g36
(lp607
tp608
Rp609
I1
bsg51
g52
sg53
g52
sg54
I547102516
sg55
I0
sg56
I0
sg57
g43
sg58
g43
sg59
g52
sg60
g52
sg61
I0
sg62
I0
sg63
I1
sg64
g43
sg65
I0
sg66
I0
sg67
I0
sg68
I0
sg69
g43
sg70
g52
sg71
I0
sg72
g73
sg74
g52
sg75
g76
sg77
I0
sg78
I0
sg79
I0
stp610
Rp611
I1
bsVMemberList
p612
g34
(g35
g36
(lp613
tp614
Rp615
I1
bsVPYQuanPin
p616
g52
sVRemarkPYInitial
p617
g52
sVSex
p618
I0
sVAppAccountFlag
p619
I0
sVVerifyFlag
p620
I0
sVProvince
p621
g52
sVKeyWord
p622
g52
sVRemarkName
p623
g52
sVPYInitial
p624
g52
sVIsOwner
p625
I0
sVChatRoomId
p626
I0
sVHideInputBarFlag
p627
I0
sVEncryChatRoomId
p628
g52
sVAttrStatus
p629
I0
sVSnsFlag
p630
I0
sVMemberCount
p631
I0
sVOwnerUin
p632
I0
sVAlias
p633
g52
sg540
NsVSignature
p634
g52
sVContactFlag
p635
I0
sVNickName
p636
g52
sVRemarkPYQuanPin
p637
g52
sVHeadImgUrl
p638
g52
sVUin
p639
I0
sVStarFriend
p640
I0
sVStatues
p641
I0
stp642
Rp643
I1
batp644
Rp645
I1
bsS'nickName'
p646
g73
sS'mpList'
p647
g34
(g35
g36
(lp648
tp649
Rp650
I1
bssS'loginInfo'
p651
(dp652
S'SyncKey'
p653
(dp654
VCount
p655
I9
sVList
p656
(lp657
(dp658
VVal
p659
I661242782
sVKey
p660
I1
sa(dp661
VVal
p662
I661242933
sVKey
p663
I2
sa(dp664
VVal
p665
I661242916
sVKey
p666
I3
sa(dp667
VVal
p668
I661242881
sVKey
p669
I11
sa(dp670
VVal
p671
I661240001
sVKey
p672
I13
sa(dp673
VVal
p674
I1502871254
sVKey
p675
I201
sa(dp676
VVal
p677
I1502869949
sVKey
p678
I203
sa(dp679
VVal
p680
I1502844121
sVKey
p681
I1000
sa(dp682
VVal
p683
I1502844152
sVKey
p684
I1001
sassS'syncUrl'
p685
S'https://webpush.wx.qq.com/cgi-bin/mmwebwx-bin'
p686
sS'skey'
p687
V@crypt_f18ebe9c_666a05080b7d935faf16a64a62886f58
p688
sS'wxuin'
p689
V547102516
p690
sS'synckey'
p691
S'1_661242782|2_661242933|3_661242916|11_661242881|13_661240001|201_1502871254|203_1502869949|1000_1502844121|1001_1502844152'
p692
sS'url'
p693
Vhttps://wx.qq.com/cgi-bin/mmwebwx-bin
p694
sS'pass_ticket'
p695
VIZA1dpGKOk8ecQNZjLR1Gk%2FUEPyBUfCJLlI7uY2oOKDlpDA6MK9eRO8VouXEOFvM
p696
sS'wxsid'
p697
VJLsp8izJFUH6ZzHi
p698
sS'BaseRequest'
p699
(dp700
g54
g690
sS'Skey'
p701
g688
sS'DeviceID'
p702
g696
sS'Sid'
p703
g698
ssS'User'
p704
g34
(g38
g39
(dp705
g41
g31
sg42
g43
sg44
g43
sg45
I0
sg47
g50
sg51
g52
sg53
g52
sg77
I0
sg55
I0
sg56
I0
sg57
g43
sg58
g43
sg59
g52
sg60
g52
sg61
I0
sg62
I0
sg63
I1
sg64
g43
sg65
I0
sg68
I0
sg66
I0
sg67
I0
sg46
I0
sg69
g43
sg70
g52
sg71
I0
sg72
g73
sg74
g52
sg75
g76
sg54
I547102516
sg78
I0
sg79
I0
stp706
Rp707
I1
bsS'fileUrl'
p708
S'https://file.wx.qq.com/cgi-bin/mmwebwx-bin'
p709
sS'InviteStartCount'
p710
I40
sS'deviceid'
p711
S'e319943134181643'
p712
ss.