(dp0
S'cookies'
p1
(dp2
S'wxloadtime'
p3
S'1502898687_expired'
p4
sS'webwx_data_ticket'
p5
S'gSfTp5t30sgSVHxVupaHTZnB'
p6
sS'wxuin'
p7
S'547102516'
p8
sS'login_frequency'
p9
S'2'
p10
sS'MM_WX_NOTIFY_STATE'
p11
S'1'
p12
sS'MM_WX_SOUND_STATE'
p13
g12
sS'webwx_auth_ticket'
p14
S'CIsBENmxuasBGoABvy8DvhTtJ/gXUZCstGXWZh7FRi0nM5piqgKXABa0aDwbB7pt4VxKmDYsHX3D+uQtSN1+4FzJyDvOCGpCgcCDrkA2WFuYkUiNfiLIHlEuWyGs37DzfKQ0VNqqRG2pRVMkkBZrYOI+fKT6dgmAilM031zrtdQPBD2zIUAf+r4pyAE='
p15
sS'last_wxuin'
p16
S'547102516'
p17
sS'webwxuvid'
p18
S'7858519452ac080615f00594b5ae6eae245ce27119e1c235d7da540400554b966346b76aa328e239fa46f2651c6399b6'
p19
sS'wxpluginkey'
p20
S'1502897583'
p21
sS'wxsid'
p22
S'1vkuUizxrz7p66pd'
p23
sS'mm_lang'
p24
S'zh_CN'
p25
ssS'version'
p26
S'1.3.8'
p27
sS'storage'
p28
(dp29
S'userName'
p30
V@f9a112064bb774a232ab6575d2c8270f63e575bb9850f06d20df48e27e9a18c4
p31
sS'lastInputUserName'
p32
NsS'memberList'
p33
ccopy_reg
_reconstructor
p34
(cstorage.templates
ContactList
p35
c__builtin__
list
p36
(lp37
g34
(cstorage.templates
User
p38
c__builtin__
dict
p39
(dp40
S'UserName'
p41
g31
sS'City'
p42
S''
p43
sS'DisplayName'
p44
g43
sS'UniFriend'
p45
I0
sS'OwnerUin'
p46
I0
sS'MemberList'
p47
g34
(g35
g36
(lp48
tp49
Rp50
I1
bsS'PYQuanPin'
p51
V
p52
sS'RemarkPYInitial'
p53
g52
sS'Uin'
p54
I547102516
sS'AppAccountFlag'
p55
I0
sS'VerifyFlag'
p56
I0
sS'Province'
p57
g43
sS'KeyWord'
p58
g43
sS'RemarkName'
p59
g52
sS'PYInitial'
p60
g52
sS'ChatRoomId'
p61
I0
sS'HideInputBarFlag'
p62
I0
sVHeadImgFlag
p63
I1
sS'EncryChatRoomId'
p64
g43
sS'AttrStatus'
p65
I0
sS'SnsFlag'
p66
I0
sS'MemberCount'
p67
I0
sVWebWxPluginSwitch
p68
I0
sS'Alias'
p69
g43
sS'Signature'
p70
g52
sS'ContactFlag'
p71
I0
sS'NickName'
p72
V\u738b\u8005\u5c0f\u673a
p73
sS'RemarkPYQuanPin'
p74
g52
sS'HeadImgUrl'
p75
V/cgi-bin/mmwebwx-bin/webwxgeticon?seq=306531907&username=@f9a112064bb774a232ab6575d2c8270f63e575bb9850f06d20df48e27e9a18c4&skey=@crypt_f18ebe9c_8e08c99583a484506095bb9409ee8a41
p76
sS'Sex'
p77
I0
sS'StarFriend'
p78
I0
sS'Statues'
p79
I0
stp80
Rp81
I1
bag34
(g38
g39
(dp82
VUserName
p83
V@e8be5e5170e7e56d6467d9bc58ed59b9ec5f12439404681a5e67d9d4384367a8
p84
sVCity
p85
g52
sVSnsFlag
p86
I49
sVDisplayName
p87
g52
sVUniFriend
p88
I0
sVMemberCount
p89
I0
sVOwnerUin
p90
I0
sVMemberList
p91
g50
sVAlias
p92
g52
sVPYQuanPin
p93
Vwangze
p94
sVSignature
p95
g52
sVRemarkPYInitial
p96
VWANG15858285967
p97
sVContactFlag
p98
I3
sVUin
p99
I0
sVNickName
p100
V\u738b\u6cfd
p101
sVAppAccountFlag
p102
I0
sVVerifyFlag
p103
I0
sVRemarkPYQuanPin
p104
Vwang15858285967
p105
sVHeadImgUrl
p106
V/cgi-bin/mmwebwx-bin/webwxgeticon?seq=661243204&username=@e8be5e5170e7e56d6467d9bc58ed59b9ec5f12439404681a5e67d9d4384367a8&skey=@crypt_f18ebe9c_8e08c99583a484506095bb9409ee8a41
p107
sVKeyWord
p108
g52
sVProvince
p109
g52
sVPYInitial
p110
VWZ
p111
sVRemarkName
p112
Vwang15858285967
p113
sVStarFriend
p114
I0
sVSex
p115
I0
sVIsOwner
p116
I0
sVHideInputBarFlag
p117
I0
sVChatRoomId
p118
I0
sVEncryChatRoomId
p119
g52
sVAttrStatus
p120
I98405
sVStatues
p121
I0
stp122
Rp123
I1
bag34
(g38
g39
(dp124
VUserName
p125
V@9fede33e51c972e832d2d0f29139fcff0925077fad7b45aea1b75a2ad007bf46
p126
sVCity
p127
V\u676d\u5dde
p128
sVSnsFlag
p129
I17
sVDisplayName
p130
g52
sVUniFriend
p131
I0
sVMemberCount
p132
I0
sVOwnerUin
p133
I0
sVMemberList
p134
g50
sVAlias
p135
g52
sVPYQuanPin
p136
Vxiaojiang
p137
sVSignature
p138
V\u65f6\u95f4\u5bf9\u4e86\uff0c\u5c31\u53d1\u5149\u53d1\u70ed\u5427
p139
sVRemarkPYInitial
p140
g52
sVContactFlag
p141
I3
sVUin
p142
I0
sVNickName
p143
V\u5c0f\u59dc
p144
sVAppAccountFlag
p145
I0
sVVerifyFlag
p146
I0
sVRemarkPYQuanPin
p147
g52
sVHeadImgUrl
p148
V/cgi-bin/mmwebwx-bin/webwxgeticon?seq=661242916&username=@9fede33e51c972e832d2d0f29139fcff0925077fad7b45aea1b75a2ad007bf46&skey=@crypt_f18ebe9c_8e08c99583a484506095bb9409ee8a41
p149
sVKeyWord
p150
g52
sVProvince
p151
V\u6d59\u6c5f
p152
sVPYInitial
p153
VXJ
p154
sVRemarkName
p155
g52
sVStarFriend
p156
I0
sVSex
p157
I1
sVIsOwner
p158
I0
sVHideInputBarFlag
p159
I0
sVChatRoomId
p160
I0
sVEncryChatRoomId
p161
g52
sVAttrStatus
p162
I16886269
sVStatues
p163
I0
stp164
Rp165
I1
bag34
(g38
g39
(dp166
VUserName
p167
V@445f75afea502f93f4af7b26c57d3498d444c184311928928ff1312675bda156
p168
sVCity
p169
V\u671d\u9633
p170
sVSnsFlag
p171
I1
sVDisplayName
p172
g52
sVUniFriend
p173
I0
sVMemberCount
p174
I0
sVOwnerUin
p175
I0
sVMemberList
p176
g50
sVAlias
p177
g52
sVPYQuanPin
p178
Vwangzhezhuanjikongjie
p179
sVSignature
p180
g52
sVRemarkPYInitial
p181
g52
sVContactFlag
p182
I3
sVUin
p183
I0
sVNickName
p184
V\u738b\u8005\u4e13\u673a\u7a7a\u59d0
p185
sVAppAccountFlag
p186
I0
sVVerifyFlag
p187
I0
sVRemarkPYQuanPin
p188
g52
sVHeadImgUrl
p189
V/cgi-bin/mmwebwx-bin/webwxgeticon?seq=661241781&username=@445f75afea502f93f4af7b26c57d3498d444c184311928928ff1312675bda156&skey=@crypt_f18ebe9c_8e08c99583a484506095bb9409ee8a41
p190
sVKeyWord
p191
g52
sVProvince
p192
V\u5317\u4eac
p193
sVPYInitial
p194
VWZZJKJ
p195
sVRemarkName
p196
g52
sVStarFriend
p197
I0
sVSex
p198
I1
sVIsOwner
p199
I0
sVHideInputBarFlag
p200
I0
sVChatRoomId
p201
I0
sVEncryChatRoomId
p202
g52
sVAttrStatus
p203
I2147487781
sVStatues
p204
I0
stp205
Rp206
I1
bag34
(g38
g39
(dp207
VUserName
p208
V@8cad0976e4bf12332b077d263833670bcaa19a17e9262086493ea15242f7b8cc
p209
sVCity
p210
V\u676d\u5dde
p211
sVSnsFlag
p212
I1
sVDisplayName
p213
g52
sVUniFriend
p214
I0
sVMemberCount
p215
I0
sVOwnerUin
p216
I0
sVMemberList
p217
g50
sVAlias
p218
g52
sVPYQuanPin
p219
Vwangzhezhuanjikongshao
p220
sVSignature
p221
V\u5171\u4eab\u7ba1\u5bb6\uff0c\u627e\u5230\u5c5e\u4e8e\u81ea\u5df1\u7684\u4eba\u8109\u5708\u5b50
p222
sVRemarkPYInitial
p223
g52
sVContactFlag
p224
I3
sVUin
p225
I0
sVNickName
p226
V\u738b\u8005\u4e13\u673a \u7a7a\u5c11
p227
sVAppAccountFlag
p228
I0
sVVerifyFlag
p229
I0
sVRemarkPYQuanPin
p230
g52
sVHeadImgUrl
p231
V/cgi-bin/mmwebwx-bin/webwxgeticon?seq=661242024&username=@8cad0976e4bf12332b077d263833670bcaa19a17e9262086493ea15242f7b8cc&skey=@crypt_f18ebe9c_8e08c99583a484506095bb9409ee8a41
p232
sVKeyWord
p233
g52
sVProvince
p234
V\u6d59\u6c5f
p235
sVPYInitial
p236
VWZZJKS
p237
sVRemarkName
p238
g52
sVStarFriend
p239
I0
sVSex
p240
I1
sVIsOwner
p241
I0
sVHideInputBarFlag
p242
I0
sVChatRoomId
p243
I0
sVEncryChatRoomId
p244
g52
sVAttrStatus
p245
I17010693
sVStatues
p246
I0
stp247
Rp248
I1
bag34
(g38
g39
(dp249
VUserName
p250
V@10b0b2ebcef1f396c8266d48e05aad4c262f36d0adb83221286500dba2c7ba85
p251
sVCity
p252
V\u5e7f\u5dde
p253
sVSnsFlag
p254
I1
sVDisplayName
p255
g52
sVUniFriend
p256
I0
sVMemberCount
p257
I0
sVOwnerUin
p258
I0
sVMemberList
p259
g50
sVAlias
p260
g52
sVPYQuanPin
p261
Vwangzhezhuanjikefu
p262
sVSignature
p263
V\u738b\u8005\u4e13\u4eab\u670d\u52a1\u8bf7\u79c1\u804a\u6211
p264
sVRemarkPYInitial
p265
g52
sVContactFlag
p266
I3
sVUin
p267
I0
sVNickName
p268
V\u738b\u8005\u4e13\u673a\u5ba2\u670d
p269
sVAppAccountFlag
p270
I0
sVVerifyFlag
p271
I0
sVRemarkPYQuanPin
p272
g52
sVHeadImgUrl
p273
V/cgi-bin/mmwebwx-bin/webwxgeticon?seq=661242287&username=@10b0b2ebcef1f396c8266d48e05aad4c262f36d0adb83221286500dba2c7ba85&skey=@crypt_f18ebe9c_8e08c99583a484506095bb9409ee8a41
p274
sVKeyWord
p275
g52
sVProvince
p276
V\u5e7f\u4e1c
p277
sVPYInitial
p278
VWZZJKF
p279
sVRemarkName
p280
g52
sVStarFriend
p281
I0
sVSex
p282
I2
sVIsOwner
p283
I0
sVHideInputBarFlag
p284
I0
sVChatRoomId
p285
I0
sVEncryChatRoomId
p286
g52
sVAttrStatus
p287
I233509
sVStatues
p288
I0
stp289
Rp290
I1
bag34
(g38
g39
(dp291
VUserName
p292
V@6491823281f7c203cc4cd208b8ad853b8a27b016ef0d3a553f22b2ebeafa8a7a
p293
sVCity
p294
g52
sVSnsFlag
p295
I49
sVDisplayName
p296
g52
sVUniFriend
p297
I0
sVMemberCount
p298
I0
sVOwnerUin
p299
I0
sVMemberList
p300
g50
sVAlias
p301
g52
sVPYQuanPin
p302
Vzhangjianfeng
p303
sVSignature
p304
V\u53bb\u4e91\u5357
p305
sVRemarkPYInitial
p306
g52
sVContactFlag
p307
I65539
sVUin
p308
I0
sVNickName
p309
V\u7ae0\u5efa\u70fd
p310
sVAppAccountFlag
p311
I0
sVVerifyFlag
p312
I0
sVRemarkPYQuanPin
p313
g52
sVHeadImgUrl
p314
V/cgi-bin/mmwebwx-bin/webwxgeticon?seq=661241774&username=@6491823281f7c203cc4cd208b8ad853b8a27b016ef0d3a553f22b2ebeafa8a7a&skey=@crypt_f18ebe9c_8e08c99583a484506095bb9409ee8a41
p315
sVKeyWord
p316
Vzha
p317
sVProvince
p318
g52
sVPYInitial
p319
VZJF
p320
sVRemarkName
p321
g52
sVStarFriend
p322
I0
sVSex
p323
I1
sVIsOwner
p324
I0
sVHideInputBarFlag
p325
I0
sVChatRoomId
p326
I0
sVEncryChatRoomId
p327
g52
sVAttrStatus
p328
I111719
sVStatues
p329
I0
stp330
Rp331
I1
bag34
(g38
g39
(dp332
VUserName
p333
V@3ded2ddda778072e7d74e7ee0166ef74
p334
sVCity
p335
V\u6d77\u6dc0
p336
sVSnsFlag
p337
I177
sVDisplayName
p338
g52
sVUniFriend
p339
I0
sVMemberCount
p340
I0
sVOwnerUin
p341
I0
sVMemberList
p342
g50
sVAlias
p343
g52
sVPYQuanPin
p344
VlaoK
p345
sVSignature
p346
V\u6316\u4e2a\u841d\u535c\u5751\u57cb\u841d\u535c......
p347
sVRemarkPYInitial
p348
g52
sVContactFlag
p349
I3
sVUin
p350
I0
sVNickName
p351
V\u8001K
p352
sVAppAccountFlag
p353
I0
sVVerifyFlag
p354
I0
sVRemarkPYQuanPin
p355
g52
sVHeadImgUrl
p356
V/cgi-bin/mmwebwx-bin/webwxgeticon?seq=654710029&username=@3ded2ddda778072e7d74e7ee0166ef74&skey=@crypt_f18ebe9c_8e08c99583a484506095bb9409ee8a41
p357
sVKeyWord
p358
Vfla
p359
sVProvince
p360
V\u5317\u4eac
p361
sVPYInitial
p362
VLK
p363
sVRemarkName
p364
g52
sVStarFriend
p365
I0
sVSex
p366
I1
sVIsOwner
p367
I0
sVHideInputBarFlag
p368
I0
sVChatRoomId
p369
I0
sVEncryChatRoomId
p370
g52
sVAttrStatus
p371
I4433959
sVStatues
p372
I0
stp373
Rp374
I1
bag34
(g38
g39
(dp375
VUserName
p376
V@322b43162bf193da92733f84ff57c2e7bcd44170787d5da2e1ed0cc45aefe34d
p377
sVCity
p378
V\u676d\u5dde
p379
sVSnsFlag
p380
I17
sVDisplayName
p381
g52
sVUniFriend
p382
I0
sVMemberCount
p383
I0
sVOwnerUin
p384
I0
sVMemberList
p385
g50
sVAlias
p386
g52
sVPYQuanPin
p387
Vbiaobiao
p388
sVSignature
p389
V\u4f60\u82e5\u76db\u5f00\uff0c\u6e05\u98ce\u81ea\u6765\u3002
p390
sVRemarkPYInitial
p391
VERWIN
p392
sVContactFlag
p393
I1
sVUin
p394
I0
sVNickName
p395
V\u6807\u6807
p396
sVAppAccountFlag
p397
I0
sVVerifyFlag
p398
I0
sVRemarkPYQuanPin
p399
VErwin
p400
sVHeadImgUrl
p401
V/cgi-bin/mmwebwx-bin/webwxgeticon?seq=661242558&username=@322b43162bf193da92733f84ff57c2e7bcd44170787d5da2e1ed0cc45aefe34d&skey=@crypt_f18ebe9c_8e08c99583a484506095bb9409ee8a41
p402
sVKeyWord
p403
g52
sVProvince
p404
V\u6d59\u6c5f
p405
sVPYInitial
p406
VBB
p407
sVRemarkName
p408
VErwin
p409
sVStarFriend
p410
I0
sVSex
p411
I1
sVIsOwner
p412
I0
sVHideInputBarFlag
p413
I0
sVChatRoomId
p414
I0
sVEncryChatRoomId
p415
g52
sVAttrStatus
p416
I68645
sVStatues
p417
I0
stp418
Rp419
I1
bag34
(g38
g39
(dp420
VUserName
p421
V@015d35ca9c7e3d009be7470d782aa2be758e9e1fbbb2e112d488019b857c0d0e
p422
sVCity
p423
g52
sVSnsFlag
p424
I17
sVDisplayName
p425
g52
sVUniFriend
p426
I0
sVMemberCount
p427
I0
sVOwnerUin
p428
I0
sVMemberList
p429
g50
sVAlias
p430
g52
sVPYQuanPin
p431
Vyunong
p432
sVSignature
p433
V\u7b49\u98ce\u6765
p434
sVRemarkPYInitial
p435
VHENGSHAO123456
p436
sVContactFlag
p437
I3
sVUin
p438
I0
sVNickName
p439
V\u96e8\u519c
p440
sVAppAccountFlag
p441
I0
sVVerifyFlag
p442
I0
sVRemarkPYQuanPin
p443
Vhengshao123456
p444
sVHeadImgUrl
p445
V/cgi-bin/mmwebwx-bin/webwxgeticon?seq=661241778&username=@015d35ca9c7e3d009be7470d782aa2be758e9e1fbbb2e112d488019b857c0d0e&skey=@crypt_f18ebe9c_8e08c99583a484506095bb9409ee8a41
p446
sVKeyWord
p447
g52
sVProvince
p448
g52
sVPYInitial
p449
VYN
p450
sVRemarkName
p451
Vhengshao123456
p452
sVStarFriend
p453
I0
sVSex
p454
I1
sVIsOwner
p455
I0
sVHideInputBarFlag
p456
I0
sVChatRoomId
p457
I0
sVEncryChatRoomId
p458
g52
sVAttrStatus
p459
I104485
sVStatues
p460
I0
stp461
Rp462
I1
batp463
Rp464
I1
bsS'chatroomList'
p465
g34
(g35
g36
(lp466
g34
(cstorage.templates
Chatroom
p467
g39
(dp468
VUserName
p469
V@@d774067ead1f5152f454f78c9f84660edc373fc87e000d7e093de7ec853b18ba
p470
sVCity
p471
g52
sVDisplayName
p472
g52
sVUniFriend
p473
I0
sS'Self'
p474
g34
(cstorage.templates
ChatroomMember
p475
g39
(dp476
VUserName
p477
V@f9a112064bb774a232ab6575d2c8270f63e575bb9850f06d20df48e27e9a18c4
p478
sVRemarkPYQuanPin
p479
g52
sVDisplayName
p480
g52
sVKeyWord
p481
g52
sVPYInitial
p482
g52
sVUin
p483
I0
sg47
g50
sVRemarkPYInitial
p484
g52
sVPYQuanPin
p485
g52
sVMemberStatus
p486
I0
sVNickName
p487
V\u738b\u8005\u5c0f\u673a
p488
sVAttrStatus
p489
I234021
stp490
Rp491
I1
bsVMemberList
p492
g34
(g35
g36
(lp493
g34
(g475
g39
(dp494
VUserName
p495
V@e8be5e5170e7e56d6467d9bc58ed59b9ec5f12439404681a5e67d9d4384367a8
p496
sVRemarkPYQuanPin
p497
g52
sVDisplayName
p498
g52
sVKeyWord
p499
g52
sVPYInitial
p500
g52
sVUin
p501
I0
sg47
g50
sVMemberStatus
p502
I0
sVPYQuanPin
p503
g52
sVRemarkPYInitial
p504
g52
sVNickName
p505
V\u738b\u6cfd
p506
sVAttrStatus
p507
I98405
stp508
Rp509
I1
bag34
(g475
g39
(dp510
VUserName
p511
V@015d35ca9c7e3d009be7470d782aa2be758e9e1fbbb2e112d488019b857c0d0e
p512
sVRemarkPYQuanPin
p513
g52
sVDisplayName
p514
g52
sVKeyWord
p515
g52
sVPYInitial
p516
g52
sVUin
p517
I0
sg47
g50
sVMemberStatus
p518
I0
sVPYQuanPin
p519
g52
sVRemarkPYInitial
p520
g52
sVNickName
p521
V\u96e8\u519c
p522
sVAttrStatus
p523
I104485
stp524
Rp525
I1
bag34
(g475
g39
(dp526
VUserName
p527
V@9238b28f61603ed32f08a30d85b203f7
p528
sVRemarkPYQuanPin
p529
g52
sVDisplayName
p530
g52
sVKeyWord
p531
g52
sVPYInitial
p532
g52
sVUin
p533
I0
sg47
g50
sVMemberStatus
p534
I0
sVPYQuanPin
p535
g52
sVRemarkPYInitial
p536
g52
sVNickName
p537
V\u3010\u5c0f\u65b0\u3011
p538
sVAttrStatus
p539
I241767
stp540
Rp541
I1
bag34
(g475
g39
(dp542
VUserName
p543
V@9fede33e51c972e832d2d0f29139fcff0925077fad7b45aea1b75a2ad007bf46
p544
sVRemarkPYQuanPin
p545
g52
sVDisplayName
p546
g52
sVKeyWord
p547
g52
sVPYInitial
p548
g52
sVUin
p549
I0
sg47
g50
sVMemberStatus
p550
I0
sVPYQuanPin
p551
g52
sVRemarkPYInitial
p552
g52
sVNickName
p553
V\u5c0f\u59dc
p554
sVAttrStatus
p555
I16886269
stp556
Rp557
I1
bag34
(g475
g39
(dp558
g477
g478
sg479
g52
sg480
g52
sg481
g52
sg482
g52
sg483
I0
sg47
g50
sg486
I0
sg485
g52
sg484
g52
sg487
g488
sg489
I234021
stp559
Rp560
I1
bag34
(g475
g39
(dp561
VUserName
p562
V@4d1a1e255d0430891de427d2448d02bb9237d4297e1502402963d0f9e09b9702
p563
sVRemarkPYQuanPin
p564
g52
sVDisplayName
p565
g52
sVKeyWord
p566
g52
sVPYInitial
p567
g52
sVUin
p568
I0
sg47
g50
sVMemberStatus
p569
I0
sVPYQuanPin
p570
g52
sVRemarkPYInitial
p571
g52
sVNickName
p572
V\u672c\u4eba\u4e13\u7528
p573
sVAttrStatus
p574
I98341
stp575
Rp576
I1
bag34
(g475
g39
(dp577
VUserName
p578
V@283c11dead2761aacbb3a4b0b21d638d
p579
sVRemarkPYQuanPin
p580
g52
sVDisplayName
p581
g52
sVKeyWord
p582
g52
sVPYInitial
p583
g52
sVUin
p584
I0
sg47
g50
sVMemberStatus
p585
I0
sVPYQuanPin
p586
g52
sVRemarkPYInitial
p587
g52
sVNickName
p588
Vzang
p589
sVAttrStatus
p590
I2147602919
stp591
Rp592
I1
bag34
(g475
g39
(dp593
VUserName
p594
V@322b43162bf193da92733f84ff57c2e7bcd44170787d5da2e1ed0cc45aefe34d
p595
sVRemarkPYQuanPin
p596
g52
sVDisplayName
p597
g52
sVKeyWord
p598
g52
sVPYInitial
p599
g52
sVUin
p600
I0
sg47
g50
sVMemberStatus
p601
I0
sVPYQuanPin
p602
g52
sVRemarkPYInitial
p603
g52
sVNickName
p604
V\u6807\u6807
p605
sVAttrStatus
p606
I68645
stp607
Rp608
I1
bag34
(g475
g39
(dp609
VUserName
p610
V@3194f20d535b9c57277b67793e2a7f1a
p611
sVRemarkPYQuanPin
p612
g52
sVDisplayName
p613
g52
sVKeyWord
p614
g52
sVPYInitial
p615
g52
sVUin
p616
I0
sg47
g50
sVMemberStatus
p617
I0
sVPYQuanPin
p618
g52
sVRemarkPYInitial
p619
g52
sVNickName
p620
V\u6781\u5ba2Sen
p621
sVAttrStatus
p622
I105317
stp623
Rp624
I1
batp625
Rp626
I1
bsVPYQuanPin
p627
g52
sVRemarkPYInitial
p628
g52
sVSex
p629
I0
sVAppAccountFlag
p630
I0
sVVerifyFlag
p631
I0
sVProvince
p632
g52
sVKeyWord
p633
g52
sVRemarkName
p634
g52
sVPYInitial
p635
g52
sVIsOwner
p636
I0
sVChatRoomId
p637
I0
sVContactType
p638
I0
sVHideInputBarFlag
p639
I0
sVEncryChatRoomId
p640
g52
sVAttrStatus
p641
I0
sVSnsFlag
p642
I0
sVMemberCount
p643
I9
sVOwnerUin
p644
I0
sVAlias
p645
g52
sS'IsAdmin'
p646
NsVSignature
p647
g52
sVContactFlag
p648
I2
sVNickName
p649
V\u6d4b\u8bd54
p650
sVChatRoomOwner
p651
V@e8be5e5170e7e56d6467d9bc58ed59b9ec5f12439404681a5e67d9d4384367a8
p652
sVRemarkPYQuanPin
p653
g52
sVHeadImgUrl
p654
V/cgi-bin/mmwebwx-bin/webwxgetheadimg?seq=0&username=@@d774067ead1f5152f454f78c9f84660edc373fc87e000d7e093de7ec853b18ba&skey=@crypt_f18ebe9c_8e08c99583a484506095bb9409ee8a41
p655
sVUin
p656
I0
sVStarFriend
p657
I0
sVStatues
p658
I1
sVHeadImgUpdateFlag
p659
I1
stp660
Rp661
I1
bag34
(g467
g39
(dp662
VUserName
p663
V@@c0dbe0682f3bc67208d3412ad2a299b3c5b9a78d2bd2f5b4728f1bf529baf71c
p664
sVCity
p665
g52
sVDisplayName
p666
g52
sVUniFriend
p667
I0
sg474
g34
(g38
g39
(dp668
g41
g31
sg42
g43
sg44
g43
sg45
I0
sg47
g50
sg51
g52
sg53
g52
sg77
I0
sg55
I0
sg56
I0
sg57
g43
sg58
g43
sg59
g52
sg60
g52
sg61
I0
sg62
I0
sg63
I1
sg64
g43
sg65
I0
sg68
I0
sg66
I0
sg67
I0
sg46
I0
sg69
g43
sg70
g52
sg71
I0
sg72
g73
sg74
g52
sg75
g76
sg54
I547102516
sg78
I0
sg79
I0
stp669
Rp670
I1
bsVMemberList
p671
g34
(g35
g36
(lp672
tp673
Rp674
I1
bsVPYQuanPin
p675
g52
sVRemarkPYInitial
p676
g52
sVSex
p677
I0
sVAppAccountFlag
p678
I0
sVVerifyFlag
p679
I0
sVProvince
p680
g52
sVKeyWord
p681
g52
sVRemarkName
p682
g52
sVPYInitial
p683
g52
sVIsOwner
p684
I0
sVChatRoomId
p685
I0
sVHideInputBarFlag
p686
I0
sVEncryChatRoomId
p687
g52
sVAttrStatus
p688
I0
sVSnsFlag
p689
I0
sVMemberCount
p690
I7
sVOwnerUin
p691
I0
sVAlias
p692
g52
sg646
NsVSignature
p693
g52
sVContactFlag
p694
I0
sVNickName
p695
V777
p696
sVRemarkPYQuanPin
p697
g52
sVHeadImgUrl
p698
V/cgi-bin/mmwebwx-bin/webwxgetheadimg?seq=0&username=@@c0dbe0682f3bc67208d3412ad2a299b3c5b9a78d2bd2f5b4728f1bf529baf71c&skey=@crypt_f18ebe9c_8e08c99583a484506095bb9409ee8a41
p699
sVUin
p700
I0
sVStarFriend
p701
I0
sVStatues
p702
I1
stp703
Rp704
I1
bag34
(g467
g39
(dp705
VUserName
p706
V@@b7e893b968a89badcd7b4c16400dd662d05043ecac057da07f42af7285017c21
p707
sVCity
p708
g52
sVDisplayName
p709
g52
sVUniFriend
p710
I0
sg474
g34
(g38
g39
(dp711
g41
g31
sg42
g43
sg44
g43
sg45
I0
sg47
g50
sg51
g52
sg53
g52
sg77
I0
sg55
I0
sg56
I0
sg57
g43
sg58
g43
sg59
g52
sg60
g52
sg61
I0
sg62
I0
sg63
I1
sg64
g43
sg65
I0
sg68
I0
sg66
I0
sg67
I0
sg46
I0
sg69
g43
sg70
g52
sg71
I0
sg72
g73
sg74
g52
sg75
g76
sg54
I547102516
sg78
I0
sg79
I0
stp712
Rp713
I1
bsVMemberList
p714
g34
(g35
g36
(lp715
tp716
Rp717
I1
bsVPYQuanPin
p718
g52
sVRemarkPYInitial
p719
g52
sVSex
p720
I0
sVAppAccountFlag
p721
I0
sVVerifyFlag
p722
I0
sVProvince
p723
g52
sVKeyWord
p724
g52
sVRemarkName
p725
g52
sVPYInitial
p726
g52
sVIsOwner
p727
I0
sVChatRoomId
p728
I0
sVHideInputBarFlag
p729
I0
sVEncryChatRoomId
p730
g52
sVAttrStatus
p731
I0
sVSnsFlag
p732
I0
sVMemberCount
p733
I8
sVOwnerUin
p734
I0
sVAlias
p735
g52
sg646
NsVSignature
p736
g52
sVContactFlag
p737
I0
sVNickName
p738
V\u738b\u8005\u6d4b\u8bd5\u7fa4
p739
sVRemarkPYQuanPin
p740
g52
sVHeadImgUrl
p741
V/cgi-bin/mmwebwx-bin/webwxgetheadimg?seq=0&username=@@b7e893b968a89badcd7b4c16400dd662d05043ecac057da07f42af7285017c21&skey=@crypt_f18ebe9c_8e08c99583a484506095bb9409ee8a41
p742
sVUin
p743
I0
sVStarFriend
p744
I0
sVStatues
p745
I1
stp746
Rp747
I1
bag34
(g467
g39
(dp748
VUserName
p749
V@@99f9d532064cb086d1c860befbfce683a83c82203e092f61b28d417e10618182
p750
sVCity
p751
g52
sVDisplayName
p752
g52
sVUniFriend
p753
I0
sg474
g34
(g38
g39
(dp754
g41
g31
sg42
g43
sg44
g43
sg45
I0
sg47
g50
sg51
g52
sg53
g52
sg77
I0
sg55
I0
sg56
I0
sg57
g43
sg58
g43
sg59
g52
sg60
g52
sg61
I0
sg62
I0
sg63
I1
sg64
g43
sg65
I0
sg68
I0
sg66
I0
sg67
I0
sg46
I0
sg69
g43
sg70
g52
sg71
I0
sg72
g73
sg74
g52
sg75
g76
sg54
I547102516
sg78
I0
sg79
I0
stp755
Rp756
I1
bsVMemberList
p757
g34
(g35
g36
(lp758
tp759
Rp760
I1
bsVPYQuanPin
p761
g52
sVRemarkPYInitial
p762
g52
sVSex
p763
I0
sVAppAccountFlag
p764
I0
sVVerifyFlag
p765
I0
sVProvince
p766
g52
sVKeyWord
p767
g52
sVRemarkName
p768
g52
sVPYInitial
p769
g52
sVIsOwner
p770
I0
sVChatRoomId
p771
I0
sVHideInputBarFlag
p772
I0
sVEncryChatRoomId
p773
g52
sVAttrStatus
p774
I0
sVSnsFlag
p775
I0
sVMemberCount
p776
I19
sVOwnerUin
p777
I0
sVAlias
p778
g52
sg646
NsVSignature
p779
g52
sVContactFlag
p780
I0
sVNickName
p781
V\u738b\u8005\u4e13\u673a\u4e58\u52a1\u7ec4
p782
sVRemarkPYQuanPin
p783
g52
sVHeadImgUrl
p784
V/cgi-bin/mmwebwx-bin/webwxgetheadimg?seq=0&username=@@99f9d532064cb086d1c860befbfce683a83c82203e092f61b28d417e10618182&skey=@crypt_f18ebe9c_8e08c99583a484506095bb9409ee8a41
p785
sVUin
p786
I0
sVStarFriend
p787
I0
sVStatues
p788
I1
stp789
Rp790
I1
batp791
Rp792
I1
bsS'nickName'
p793
g73
sS'mpList'
p794
g34
(g35
g36
(lp795
tp796
Rp797
I1
bssS'loginInfo'
p798
(dp799
S'SyncKey'
p800
(dp801
VCount
p802
I9
sVList
p803
(lp804
(dp805
VVal
p806
I661243554
sVKey
p807
I1
sa(dp808
VVal
p809
I661243726
sVKey
p810
I2
sa(dp811
VVal
p812
I661243212
sVKey
p813
I3
sa(dp814
VVal
p815
I661243465
sVKey
p816
I11
sa(dp817
VVal
p818
I661240001
sVKey
p819
I13
sa(dp820
VVal
p821
I1502898783
sVKey
p822
I201
sa(dp823
VVal
p824
I1502895964
sVKey
p825
I203
sa(dp826
VVal
p827
I1502897583
sVKey
p828
I1000
sa(dp829
VVal
p830
I1502878352
sVKey
p831
I1001
sassS'syncUrl'
p832
S'https://webpush.wx.qq.com/cgi-bin/mmwebwx-bin'
p833
sS'skey'
p834
V@crypt_f18ebe9c_8e08c99583a484506095bb9409ee8a41
p835
sS'wxuin'
p836
V547102516
p837
sS'synckey'
p838
S'1_661243554|2_661243726|3_661243212|11_661243465|13_661240001|201_1502898783|203_1502895964|1000_1502897583|1001_1502878352'
p839
sS'url'
p840
Vhttps://wx.qq.com/cgi-bin/mmwebwx-bin
p841
sS'pass_ticket'
p842
V6QkC5VmVJPWpNJDjB9tUOwbUteJKod1%2FK%2Fma5fmAyL468pwFklsPwt0xlYaJyqYA
p843
sS'wxsid'
p844
V1vkuUizxrz7p66pd
p845
sS'BaseRequest'
p846
(dp847
S'Sid'
p848
g845
sS'Skey'
p849
g835
sS'DeviceID'
p850
g843
sg54
g837
ssS'deviceid'
p851
S'e302126286984690'
p852
sS'fileUrl'
p853
S'https://file.wx.qq.com/cgi-bin/mmwebwx-bin'
p854
sS'InviteStartCount'
p855
I40
sS'User'
p856
g34
(g38
g39
(dp857
g41
g31
sg42
g43
sg44
g43
sg45
I0
sg47
g50
sg51
g52
sg53
g52
sg77
I0
sg55
I0
sg56
I0
sg57
g43
sg58
g43
sg59
g52
sg60
g52
sg61
I0
sg62
I0
sg63
I1
sg64
g43
sg65
I0
sg68
I0
sg66
I0
sg67
I0
sg46
I0
sg69
g43
sg70
g52
sg71
I0
sg72
g73
sg74
g52
sg75
g76
sg54
I547102516
sg78
I0
sg79
I0
stp858
Rp859
I1
bss.