(dp0
S'cookies'
p1
(dp2
S'wxloadtime'
p3
S'1500522678_expired'
p4
sS'webwx_data_ticket'
p5
S'gScVVEydCKFxsfLLevgzsZ8C'
p6
sS'wxuin'
p7
S'547102516'
p8
sS'login_frequency'
p9
S'2'
p10
sS'MM_WX_NOTIFY_STATE'
p11
S'1'
p12
sS'MM_WX_SOUND_STATE'
p13
g12
sS'webwx_auth_ticket'
p14
S'CIsBEIiz7ZMPGoABb49mA9Ox4BB1zydCg7tFQR7FRi0nM5piqgKXABa0aDwbB7pt4VxKmDYsHX3D+uQtSN1+4FzJyDvOCGpCgcCDrkA2WFuYkUiNfiLIHlEuWyGs37DzfKQ0VNqqRG2pRVMkSAuc6grovPrKoAYn6jUjOIpXsZbH35eizC0oBFxL7HE='
p15
sS'last_wxuin'
p16
S'547102516'
p17
sS'webwxuvid'
p18
S'7858519452ac080615f00594b5ae6eae245ce27119e1c235d7da540400554b966346b76aa328e239fa46f2651c6399b6'
p19
sS'wxpluginkey'
p20
S'1500518564'
p21
sS'wxsid'
p22
S'55ryWc5AMhamPBTl'
p23
sS'mm_lang'
p24
S'zh_CN'
p25
ssS'version'
p26
S'1.3.8'
p27
sS'storage'
p28
(dp29
S'userName'
p30
V@81a3fa8fdc363df332ca0a8bf3fccefa588c0594d31fd0612344ba5cbf865484
p31
sS'lastInputUserName'
p32
NsS'memberList'
p33
ccopy_reg
_reconstructor
p34
(cstorage.templates
ContactList
p35
c__builtin__
list
p36
(lp37
g34
(cstorage.templates
User
p38
c__builtin__
dict
p39
(dp40
S'UserName'
p41
g31
sS'City'
p42
S''
p43
sS'DisplayName'
p44
g43
sS'UniFriend'
p45
I0
sS'OwnerUin'
p46
I0
sS'MemberList'
p47
g34
(g35
g36
(lp48
tp49
Rp50
I1
bsS'PYQuanPin'
p51
V
p52
sS'RemarkPYInitial'
p53
g52
sS'Uin'
p54
I547102516
sS'AppAccountFlag'
p55
I0
sS'VerifyFlag'
p56
I0
sS'Province'
p57
g43
sS'KeyWord'
p58
g43
sS'RemarkName'
p59
g52
sS'PYInitial'
p60
g52
sS'ChatRoomId'
p61
I0
sS'HideInputBarFlag'
p62
I0
sVHeadImgFlag
p63
I1
sS'EncryChatRoomId'
p64
g43
sS'AttrStatus'
p65
I0
sS'SnsFlag'
p66
I0
sS'MemberCount'
p67
I0
sVWebWxPluginSwitch
p68
I0
sS'Alias'
p69
g43
sS'Signature'
p70
g52
sS'ContactFlag'
p71
I0
sS'NickName'
p72
V\u738b\u8005\u5c0f\u673a
p73
sS'RemarkPYQuanPin'
p74
g52
sS'HeadImgUrl'
p75
V/cgi-bin/mmwebwx-bin/webwxgeticon?seq=1511288286&username=@81a3fa8fdc363df332ca0a8bf3fccefa588c0594d31fd0612344ba5cbf865484&skey=@crypt_f18ebe9c_a92aabd1e9dd0ea1d7b3cf385441ab53
p76
sS'Sex'
p77
I0
sS'StarFriend'
p78
I0
sS'Statues'
p79
I0
stp80
Rp81
I1
bag34
(g38
g39
(dp82
VUserName
p83
V@00e919df80c0c2e20b5717272176b7c21b3dd36e4061b79b23049bc2221e167b
p84
sVCity
p85
V\u671d\u9633
p86
sVSnsFlag
p87
I1
sVDisplayName
p88
g52
sVUniFriend
p89
I0
sVMemberCount
p90
I0
sVOwnerUin
p91
I0
sVMemberList
p92
g50
sVAlias
p93
g52
sVPYQuanPin
p94
Vwangzhezhuanjikongjie
p95
sVSignature
p96
g52
sVRemarkPYInitial
p97
g52
sVContactFlag
p98
I3
sVUin
p99
I0
sVNickName
p100
V\u738b\u8005\u4e13\u673a\u7a7a\u59d0
p101
sVAppAccountFlag
p102
I0
sVVerifyFlag
p103
I0
sVRemarkPYQuanPin
p104
g52
sVHeadImgUrl
p105
V/cgi-bin/mmwebwx-bin/webwxgeticon?seq=661241781&username=@00e919df80c0c2e20b5717272176b7c21b3dd36e4061b79b23049bc2221e167b&skey=@crypt_f18ebe9c_a92aabd1e9dd0ea1d7b3cf385441ab53
p106
sVKeyWord
p107
g52
sVProvince
p108
V\u5317\u4eac
p109
sVPYInitial
p110
VWZZJKJ
p111
sVRemarkName
p112
g52
sVStarFriend
p113
I0
sVSex
p114
I1
sVIsOwner
p115
I0
sVHideInputBarFlag
p116
I0
sVChatRoomId
p117
I0
sVEncryChatRoomId
p118
g52
sVAttrStatus
p119
I2147487781
sVStatues
p120
I0
stp121
Rp122
I1
bag34
(g38
g39
(dp123
VUserName
p124
V@828118462fb3b3e3acdb4b27d17b800a1f7cae74ecd5fac7db818bca167a6896
p125
sVCity
p126
V\u676d\u5dde
p127
sVSnsFlag
p128
I17
sVDisplayName
p129
g52
sVUniFriend
p130
I0
sVMemberCount
p131
I0
sVOwnerUin
p132
I0
sVMemberList
p133
g50
sVAlias
p134
g52
sVPYQuanPin
p135
Vyunong
p136
sVSignature
p137
V\u7b49\u98ce\u6765
p138
sVRemarkPYInitial
p139
g52
sVContactFlag
p140
I3
sVUin
p141
I0
sVNickName
p142
V\u96e8\u519c
p143
sVAppAccountFlag
p144
I0
sVVerifyFlag
p145
I0
sVRemarkPYQuanPin
p146
g52
sVHeadImgUrl
p147
V/cgi-bin/mmwebwx-bin/webwxgeticon?seq=661241778&username=@828118462fb3b3e3acdb4b27d17b800a1f7cae74ecd5fac7db818bca167a6896&skey=@crypt_f18ebe9c_a92aabd1e9dd0ea1d7b3cf385441ab53
p148
sVKeyWord
p149
g52
sVProvince
p150
V\u6d59\u6c5f
p151
sVPYInitial
p152
VYN
p153
sVRemarkName
p154
g52
sVStarFriend
p155
I0
sVSex
p156
I1
sVIsOwner
p157
I0
sVHideInputBarFlag
p158
I0
sVChatRoomId
p159
I0
sVEncryChatRoomId
p160
g52
sVAttrStatus
p161
I104485
sVStatues
p162
I0
stp163
Rp164
I1
bag34
(g38
g39
(dp165
VUserName
p166
V@6fec564db5193ce6753c006812814d18f5c944662e525db1544971d531d98f3b
p167
sVCity
p168
g52
sVSnsFlag
p169
I49
sVDisplayName
p170
g52
sVUniFriend
p171
I0
sVMemberCount
p172
I0
sVOwnerUin
p173
I0
sVMemberList
p174
g50
sVAlias
p175
g52
sVPYQuanPin
p176
Vzhangjianfeng
p177
sVSignature
p178
V\u53bb\u4e91\u5357
p179
sVRemarkPYInitial
p180
g52
sVContactFlag
p181
I3
sVUin
p182
I0
sVNickName
p183
V\u7ae0\u5efa\u70fd
p184
sVAppAccountFlag
p185
I0
sVVerifyFlag
p186
I0
sVRemarkPYQuanPin
p187
g52
sVHeadImgUrl
p188
V/cgi-bin/mmwebwx-bin/webwxgeticon?seq=661241774&username=@6fec564db5193ce6753c006812814d18f5c944662e525db1544971d531d98f3b&skey=@crypt_f18ebe9c_a92aabd1e9dd0ea1d7b3cf385441ab53
p189
sVKeyWord
p190
Vzha
p191
sVProvince
p192
g52
sVPYInitial
p193
VZJF
p194
sVRemarkName
p195
g52
sVStarFriend
p196
I0
sVSex
p197
I1
sVIsOwner
p198
I0
sVHideInputBarFlag
p199
I0
sVChatRoomId
p200
I0
sVEncryChatRoomId
p201
g52
sVAttrStatus
p202
I111719
sVStatues
p203
I0
stp204
Rp205
I1
bag34
(g38
g39
(dp206
VUserName
p207
V@bf480f1846f16893b2e122c9039c7c36
p208
sVCity
p209
V\u6d77\u6dc0
p210
sVSnsFlag
p211
I49
sVDisplayName
p212
g52
sVUniFriend
p213
I0
sVMemberCount
p214
I0
sVOwnerUin
p215
I0
sVMemberList
p216
g50
sVAlias
p217
g52
sVPYQuanPin
p218
VlaoK
p219
sVSignature
p220
V\u6316\u4e2a\u841d\u535c\u5751\u57cb\u841d\u535c......
p221
sVRemarkPYInitial
p222
g52
sVContactFlag
p223
I3
sVUin
p224
I0
sVNickName
p225
V\u8001K
p226
sVAppAccountFlag
p227
I0
sVVerifyFlag
p228
I0
sVRemarkPYQuanPin
p229
g52
sVHeadImgUrl
p230
V/cgi-bin/mmwebwx-bin/webwxgeticon?seq=654710029&username=@bf480f1846f16893b2e122c9039c7c36&skey=@crypt_f18ebe9c_a92aabd1e9dd0ea1d7b3cf385441ab53
p231
sVKeyWord
p232
Vfla
p233
sVProvince
p234
V\u5317\u4eac
p235
sVPYInitial
p236
VLK
p237
sVRemarkName
p238
g52
sVStarFriend
p239
I0
sVSex
p240
I1
sVIsOwner
p241
I0
sVHideInputBarFlag
p242
I0
sVChatRoomId
p243
I0
sVEncryChatRoomId
p244
g52
sVAttrStatus
p245
I4433959
sVStatues
p246
I0
stp247
Rp248
I1
bag34
(g38
g39
(dp249
VUserName
p250
V@001f79b44800464f3b3aeb967b47d2780a5fa93d22ce36cafa1d0b67ab83bb14
p251
sVCity
p252
V\u676d\u5dde
p253
sVSnsFlag
p254
I1
sVMemberCount
p255
I0
sVMemberList
p256
g50
sVAlias
p257
g52
sVSignature
p258
V\u5171\u4eab\u7ba1\u5bb6\uff0c\u627e\u5230\u5c5e\u4e8e\u81ea\u5df1\u7684\u4eba\u8109\u5708\u5b50
p259
sVHeadImgUrl
p260
V/cgi-bin/mmwebwx-bin/webwxgeticon?seq=661242024&username=@001f79b44800464f3b3aeb967b47d2780a5fa93d22ce36cafa1d0b67ab83bb14&skey=@crypt_f18ebe9c_a92aabd1e9dd0ea1d7b3cf385441ab53
p261
sVNickName
p262
V\u738b\u8005\u4e13\u673a \u7a7a\u5c11
p263
sVHideInputBarFlag
p264
I0
sVVerifyFlag
p265
I0
sVProvince
p266
V\u6d59\u6c5f
p267
sVStatues
p268
I0
sVKeyWord
p269
g52
sVRemarkName
p270
g52
sVContactFlag
p271
I3
sVSex
p272
I1
sVContactType
p273
I0
sVChatRoomOwner
p274
g52
sVAttrStatus
p275
I17010693
sVHeadImgUpdateFlag
p276
I1
stp277
Rp278
I1
batp279
Rp280
I1
bsS'chatroomList'
p281
g34
(g35
g36
(lp282
g34
(cstorage.templates
Chatroom
p283
g39
(dp284
VUserName
p285
V@@d88e38c95eb8ec54e2162ed79455073f53ce17e7516a6ea2846803f21b752515
p286
sVCity
p287
g52
sVSnsFlag
p288
I0
sVMemberCount
p289
I3
sS'Self'
p290
g34
(cstorage.templates
ChatroomMember
p291
g39
(dp292
VUserName
p293
V@81a3fa8fdc363df332ca0a8bf3fccefa588c0594d31fd0612344ba5cbf865484
p294
sVRemarkPYQuanPin
p295
g52
sVDisplayName
p296
g52
sVKeyWord
p297
g52
sVPYInitial
p298
g52
sVUin
p299
I0
sg47
g50
sVMemberStatus
p300
I0
sVPYQuanPin
p301
g52
sVRemarkPYInitial
p302
g52
sVNickName
p303
V\u738b\u8005\u5c0f\u673a
p304
sVAttrStatus
p305
I234021
stp306
Rp307
I1
bsg46
I0
sVMemberList
p308
g34
(g35
g36
(lp309
g34
(g291
g39
(dp310
VUserName
p311
V@bf480f1846f16893b2e122c9039c7c36
p312
sVRemarkPYQuanPin
p313
g52
sVDisplayName
p314
g52
sVKeyWord
p315
g52
sVPYInitial
p316
g52
sVUin
p317
I0
sg47
g50
sVMemberStatus
p318
I0
sVPYQuanPin
p319
g52
sVRemarkPYInitial
p320
g52
sVNickName
p321
V\u8001K
p322
sVAttrStatus
p323
I4433959
stp324
Rp325
I1
bag34
(g291
g39
(dp326
VUserName
p327
V@00e919df80c0c2e20b5717272176b7c21b3dd36e4061b79b23049bc2221e167b
p328
sVRemarkPYQuanPin
p329
g52
sVDisplayName
p330
g52
sVKeyWord
p331
g52
sVPYInitial
p332
g52
sVUin
p333
I0
sg47
g50
sVMemberStatus
p334
I0
sVPYQuanPin
p335
g52
sVRemarkPYInitial
p336
g52
sVNickName
p337
V\u738b\u8005\u4e13\u673a\u7a7a\u59d0
p338
sVAttrStatus
p339
I2147487781
stp340
Rp341
I1
bag34
(g291
g39
(dp342
g293
g294
sg295
g52
sg296
g52
sg297
g52
sg298
g52
sg299
I0
sg47
g50
sg300
I0
sg301
g52
sg302
g52
sg303
g304
sg305
I234021
stp343
Rp344
I1
batp345
Rp346
I1
bsVAlias
p347
g52
sS'IsAdmin'
p348
NsVSignature
p349
g52
sVContactFlag
p350
I2
sVNickName
p351
VHappy
p352
sVChatRoomOwner
p353
V@81a3fa8fdc363df332ca0a8bf3fccefa588c0594d31fd0612344ba5cbf865484
p354
sVVerifyFlag
p355
I0
sVProvince
p356
g52
sVStatues
p357
I1
sVKeyWord
p358
g52
sVRemarkName
p359
g52
sVHeadImgUrl
p360
V/cgi-bin/mmwebwx-bin/webwxgetheadimg?seq=0&username=@@d88e38c95eb8ec54e2162ed79455073f53ce17e7516a6ea2846803f21b752515&skey=@crypt_f18ebe9c_a92aabd1e9dd0ea1d7b3cf385441ab53
p361
sVSex
p362
I0
sVContactType
p363
I0
sVHideInputBarFlag
p364
I0
sVAttrStatus
p365
I0
sVHeadImgUpdateFlag
p366
I1
stp367
Rp368
I1
batp369
Rp370
I1
bsS'nickName'
p371
g73
sS'mpList'
p372
g34
(g35
g36
(lp373
tp374
Rp375
I1
bssS'loginInfo'
p376
(dp377
S'SyncKey'
p378
(dp379
VCount
p380
I9
sVList
p381
(lp382
(dp383
VVal
p384
I661241799
sVKey
p385
I1
sa(dp386
VVal
p387
I661242068
sVKey
p388
I2
sa(dp389
VVal
p390
I661242026
sVKey
p391
I3
sa(dp392
VVal
p393
I661241874
sVKey
p394
I11
sa(dp395
VVal
p396
I661240001
sVKey
p397
I13
sa(dp398
VVal
p399
I1500534553
sVKey
p400
I201
sa(dp401
VVal
p402
I1500523256
sVKey
p403
I203
sa(dp404
VVal
p405
I1500518564
sVKey
p406
I1000
sa(dp407
VVal
p408
I1500512792
sVKey
p409
I1001
sassS'syncUrl'
p410
S'https://webpush.wx.qq.com/cgi-bin/mmwebwx-bin'
p411
sS'skey'
p412
V@crypt_f18ebe9c_a92aabd1e9dd0ea1d7b3cf385441ab53
p413
sS'wxuin'
p414
V547102516
p415
sS'synckey'
p416
S'1_661241799|2_661242068|3_661242026|11_661241874|13_661240001|201_1500534553|203_1500523256|1000_1500518564|1001_1500512792'
p417
sS'url'
p418
Vhttps://wx.qq.com/cgi-bin/mmwebwx-bin
p419
sS'pass_ticket'
p420
V7EUQjOr3IIE9meAUbtlqXBb9h0BO00oi1GxkzAMgBMd0%2FFNAqXEVWpxMZ0HenNHj
p421
sS'wxsid'
p422
V55ryWc5AMhamPBTl
p423
sS'User'
p424
g34
(g38
g39
(dp425
g41
g31
sg42
g43
sg44
g43
sg45
I0
sg47
g50
sg51
g52
sg53
g52
sg77
I0
sg55
I0
sg56
I0
sg57
g43
sg58
g43
sg59
g52
sg60
g52
sg61
I0
sg62
I0
sg63
I1
sg64
g43
sg65
I0
sg68
I0
sg66
I0
sg67
I0
sg46
I0
sg69
g43
sg70
g52
sg71
I0
sg72
g73
sg74
g52
sg75
g76
sg54
I547102516
sg78
I0
sg79
I0
stp426
Rp427
I1
bsS'InviteStartCount'
p428
I40
sS'fileUrl'
p429
S'https://file.wx.qq.com/cgi-bin/mmwebwx-bin'
p430
sS'BaseRequest'
p431
(dp432
S'Sid'
p433
g423
sS'Skey'
p434
g413
sS'DeviceID'
p435
g421
sg54
g415
ssS'deviceid'
p436
S'e164122457191294'
p437
ss.